Component: ARM Compiler 5.06 update 6 (build 750) Tool: armlink [4d35ed]

==============================================================================

Section Cross References

    main.o(.text) refers to stm32f4xx_rcc.o(.text) for RCC_AHB1PeriphClockCmd
    main.o(.text) refers to stm32f4xx_gpio.o(.text) for GPIO_Init
    main.o(.text) refers to stm32f4xx_usart.o(.text) for USART_StructInit
    main.o(.text) refers to stm32f4_discovery.o(.text) for STM_EVAL_COMInit
    main.o(.text) refers to printf8.o(i.__0printf$8) for __2printf
    main.o(.text) refers to app.o(.text) for APP_Initialize
    main.o(.text) refers to stm32f4x7_eth_bsp.o(.text) for ETH_BSP_Config
    main.o(.text) refers to lab612_tim.o(.text) for Timer_Config
    main.o(.text) refers to netconf.o(.text) for MAC_Init
    main.o(.text) refers to ptpd.o(.text) for ptpd_init
    main.o(.text) refers to lab612_adc.o(.text) for ADC_Config
    main.o(.text) refers to lab612_tim_it.o(.data) for ADPLL_Lock
    stm32f4x7_eth_bsp.o(.text) refers to stm32f4xx_rcc.o(.text) for RCC_AHB1PeriphClockCmd
    stm32f4x7_eth_bsp.o(.text) refers to stm32f4x7_eth.o(.text) for ETH_DeInit
    stm32f4x7_eth_bsp.o(.text) refers to misc.o(.text) for NVIC_PriorityGroupConfig
    stm32f4x7_eth_bsp.o(.text) refers to stm32f4xx_syscfg.o(.text) for SYSCFG_ETH_MediaInterfaceConfig
    stm32f4x7_eth_bsp.o(.text) refers to stm32f4xx_gpio.o(.text) for GPIO_Init
    stm32f4x7_eth_bsp.o(.text) refers to stm32f4x7_eth_bsp.o(.data) for EthInitStatus
    stm32f4xx_it.o(.text) refers to lab612_tim_it.o(.text) for TIM2_IT_PA3_ADPLL
    stm32f4xx_it.o(.text) refers to stm32f4x7_eth.o(.text) for ETH_GetDMAFlagStatus
    stm32f4xx_it.o(.text) refers to sys_arch.o(.text) for sys_sem_signal
    stm32f4xx_it.o(.text) refers to ethernetif.o(.bss) for s_xRxSemaphore
    system_stm32f4xx.o(.text) refers to system_stm32f4xx.o(.data) for SystemCoreClock
    lab612_tim.o(.text) refers to stm32f4xx_rcc.o(.text) for RCC_APB1PeriphClockCmd
    lab612_tim.o(.text) refers to stm32f4xx_tim.o(.text) for TIM_TimeBaseInit
    lab612_tim.o(.text) refers to misc.o(.text) for NVIC_PriorityGroupConfig
    lab612_tim.o(.text) refers to lab612_tim.o(.data) for Tim2Period
    lab612_tim_it.o(.text) refers to stm32f4xx_tim.o(.text) for TIM_GetITStatus
    lab612_tim_it.o(.text) refers to stm32f4xx_gpio.o(.text) for GPIO_SetBits
    lab612_tim_it.o(.text) refers to stm32f4xx_dma.o(.text) for DMA_GetITStatus
    lab612_tim_it.o(.text) refers to app.o(.text) for APP_TransmitSwitchState
    lab612_tim_it.o(.text) refers to lab612_tim_it.o(.data) for ADPLL_Lock
    lab612_tim_it.o(.text) refers to main.o(.data) for OffsetSecond
    lab612_tim_it.o(.text) refers to lab612_tim.o(.data) for Tim2Period
    lab612_tim_it.o(.text) refers to lab612_adc.o(.data) for ADCDualConvertedValue
    lab612_adc.o(.text) refers to stm32f4xx_adc.o(.text) for ADC_Init
    lab612_adc.o(.text) refers to stm32f4xx_gpio.o(.text) for GPIO_Init
    lab612_adc.o(.text) refers to stm32f4xx_dma.o(.text) for DMA_Init
    lab612_adc.o(.text) refers to stm32f4xx_rcc.o(.text) for RCC_AHB1PeriphClockCmd
    lab612_adc.o(.text) refers to lab612_adc.o(.data) for ADCDualConvertedValue
    rtx_conf_cm.o(.ARM.Collect$$$$000000FF) refers to rt_cmsis.o(.text) for osKernelInitialize
    rtx_conf_cm.o(.ARM.Collect$$$$000000FF) refers to rtx_conf_cm.o(.data) for .data
    rtx_conf_cm.o(.constdata) refers to rt_cmsis.o(.text) for osTimerThread
    rtx_conf_cm.o(.constdata) refers to rtx_conf_cm.o(.bss) for os_messageQ_q_osTimerMessageQ
    rtx_conf_cm.o(.data) refers to main.o(.text) for main
    rt_cmsis.o(.text) refers to rt_task.o(.text) for rt_tsk_self
    rt_cmsis.o(.text) refers to rt_memory.o(.text) for rt_free_mem
    rt_cmsis.o(.text) refers to rt_mailbox.o(.text) for rt_mbx_init
    rt_cmsis.o(.text) refers to rt_system.o(.text) for os_tick_val
    rt_cmsis.o(.text) refers to rtx_conf_cm.o(.constdata) for os_clockrate
    rt_cmsis.o(.text) refers to rtx_conf_cm.o(.bss) for os_active_TCB
    rt_cmsis.o(.text) refers to rt_cmsis.o(.data) for os_initialized
    rt_cmsis.o(.text) refers to rt_task.o(.data) for os_tsk
    rt_cmsis.o(.text) refers to rtx_conf_cm.o(.data) for osMessageQId_osTimerMessageQ
    rt_cmsis.o(.text) refers to rt_time.o(.data) for os_time
    rt_cmsis.o(.text) refers to rt_time.o(.text) for rt_dly_wait
    rt_cmsis.o(.text) refers to rt_event.o(.text) for rt_evt_set
    rt_cmsis.o(.text) refers to rt_mutex.o(.text) for rt_mut_init
    rt_cmsis.o(.text) refers to rt_semaphore.o(.text) for rt_sem_init
    rt_cmsis.o(.text) refers to rt_membox.o(.text) for _init_box
    rt_cmsis.o(.text) refers to rt_list.o(.text) for rt_put_prio
    rt_cmsis.o(.text) refers to hal_cm.o(.text) for rt_ret_val
    rt_event.o(.text) refers to rt_task.o(.text) for rt_block
    rt_event.o(.text) refers to rt_list.o(.text) for rt_rmv_dly
    rt_event.o(.text) refers to hal_cm.o(.text) for rt_ret_val2
    rt_event.o(.text) refers to rt_system.o(.text) for rt_psh_req
    rt_event.o(.text) refers to rt_task.o(.data) for os_tsk
    rt_event.o(.text) refers to rtx_conf_cm.o(.bss) for os_active_TCB
    rt_event.o(.text) refers to rt_list.o(.bss) for os_rdy
    rt_list.o(.text) refers to rtx_conf_cm.o(.text) for os_error
    rt_list.o(.text) refers to rt_list.o(.bss) for os_rdy
    rt_list.o(.text) refers to rt_task.o(.data) for os_tsk
    rt_list.o(.text) refers to rt_time.o(.data) for os_time
    rt_list.o(.text) refers to rtx_conf_cm.o(.bss) for os_fifo
    rt_mailbox.o(.text) refers to rt_list.o(.text) for rt_get_first
    rt_mailbox.o(.text) refers to hal_cm.o(.text) for rt_ret_val2
    rt_mailbox.o(.text) refers to rt_task.o(.text) for rt_dispatch
    rt_mailbox.o(.text) refers to rt_system.o(.text) for rt_psh_req
    rt_mailbox.o(.text) refers to rt_membox.o(.text) for rt_alloc_box
    rt_mailbox.o(.text) refers to rtx_conf_cm.o(.text) for os_error
    rt_mailbox.o(.text) refers to rt_task.o(.data) for os_tsk
    rt_mailbox.o(.text) refers to rt_list.o(.bss) for os_rdy
    rt_membox.o(.text) refers to hal_cm4.o(.emb_text) for _alloc_box
    rt_mutex.o(.text) refers to rt_list.o(.text) for rt_resort_prio
    rt_mutex.o(.text) refers to hal_cm.o(.text) for rt_ret_val
    rt_mutex.o(.text) refers to rt_task.o(.text) for rt_dispatch
    rt_mutex.o(.text) refers to rt_task.o(.data) for os_tsk
    rt_mutex.o(.text) refers to rt_list.o(.bss) for os_rdy
    rt_robin.o(.text) refers to rt_list.o(.text) for rt_get_first
    rt_robin.o(.text) refers to rt_robin.o(.data) for os_robin
    rt_robin.o(.text) refers to rtx_conf_cm.o(.constdata) for os_rrobin
    rt_robin.o(.text) refers to rt_list.o(.bss) for os_rdy
    rt_robin.o(.text) refers to rt_time.o(.data) for os_time
    rt_semaphore.o(.text) refers to rt_list.o(.text) for rt_get_first
    rt_semaphore.o(.text) refers to hal_cm.o(.text) for rt_ret_val
    rt_semaphore.o(.text) refers to rt_task.o(.text) for rt_dispatch
    rt_semaphore.o(.text) refers to rt_system.o(.text) for rt_psh_req
    rt_semaphore.o(.text) refers to rt_list.o(.bss) for os_rdy
    rt_semaphore.o(.text) refers to rt_task.o(.data) for os_tsk
    rt_system.o(.text) refers to rt_cmsis.o(.text) for sysUserTimerWakeupTime
    rt_system.o(.text) refers to rt_list.o(.text) for rt_put_rdy_first
    rt_system.o(.text) refers to rt_task.o(.text) for rt_switch_req
    rt_system.o(.text) refers to rt_event.o(.text) for rt_evt_psh
    rt_system.o(.text) refers to rt_mailbox.o(.text) for rt_mbx_psh
    rt_system.o(.text) refers to rt_semaphore.o(.text) for rt_sem_psh
    rt_system.o(.text) refers to rt_robin.o(.text) for rt_chk_robin
    rt_system.o(.text) refers to rtx_conf_cm.o(.text) for os_error
    rt_system.o(.text) refers to rt_system.o(.data) for os_tick_irqn
    rt_system.o(.text) refers to rt_list.o(.bss) for os_dly
    rt_system.o(.text) refers to rt_task.o(.data) for os_tsk
    rt_system.o(.text) refers to rt_robin.o(.data) for os_robin
    rt_system.o(.text) refers to rt_time.o(.data) for os_time
    rt_system.o(.text) refers to rtx_conf_cm.o(.bss) for os_fifo
    rt_system.o(.text) refers to rtx_conf_cm.o(.constdata) for os_trv
    rt_task.o(.text) refers to rt_membox.o(.text) for rt_alloc_box
    rt_task.o(.text) refers to hal_cm.o(.text) for rt_init_stack
    rt_task.o(.text) refers to rt_list.o(.text) for rt_get_first
    rt_task.o(.text) refers to hal_cm4.o(.emb_text) for rt_get_PSP
    rt_task.o(.text) refers to rt_system.o(.text) for rt_stk_check
    rt_task.o(.text) refers to rt_robin.o(.text) for rt_init_robin
    rt_task.o(.text) refers to rtx_conf_cm.o(.bss) for os_active_TCB
    rt_task.o(.text) refers to rtx_conf_cm.o(.constdata) for os_maxtaskrun
    rt_task.o(.text) refers to rt_task.o(.data) for os_tsk
    rt_task.o(.text) refers to rt_list.o(.bss) for os_rdy
    rt_task.o(.text) refers to rtx_conf_cm.o(.data) for m_tmr
    rt_task.o(.text) refers to rt_task.o(.bss) for os_idle_TCB
    rt_task.o(.text) refers to rtx_conf_cm.o(.text) for os_idle_demon
    rt_task.o(.text) refers to rt_system.o(.data) for os_tick_irqn
    rt_time.o(.text) refers to rt_task.o(.text) for rt_block
    rt_time.o(.text) refers to rt_time.o(.data) for os_time
    rt_time.o(.text) refers to rt_task.o(.data) for os_tsk
    hal_cm4.o(.emb_text) refers to rtx_conf_cm.o(.constdata) for os_flags
    hal_cm4.o(.emb_text) refers to rt_membox.o(.text) for rt_alloc_box
    hal_cm4.o(.emb_text) refers to rt_system.o(.text) for rt_stk_check
    hal_cm4.o(.emb_text) refers to rt_task.o(.data) for os_tsk
    hal_cm4.o(.emb_text) refers to svc_table.o(SVC_TABLE) for SVC_Count
    hal_cm.o(.text) refers to rtx_conf_cm.o(.constdata) for os_stackinfo
    stm32f4_discovery.o(.text) refers to stm32f4xx_rcc.o(.text) for RCC_AHB1PeriphClockCmd
    stm32f4_discovery.o(.text) refers to stm32f4xx_gpio.o(.text) for GPIO_Init
    stm32f4_discovery.o(.text) refers to stm32f4xx_syscfg.o(.text) for SYSCFG_EXTILineConfig
    stm32f4_discovery.o(.text) refers to stm32f4xx_exti.o(.text) for EXTI_Init
    stm32f4_discovery.o(.text) refers to misc.o(.text) for NVIC_Init
    stm32f4_discovery.o(.text) refers to stm32f4xx_usart.o(.text) for USART_Init
    stm32f4_discovery.o(.text) refers to stm32f4xx_sdio.o(.text) for SDIO_ClockCmd
    stm32f4_discovery.o(.text) refers to stm32f4xx_dma.o(.text) for DMA_ClearFlag
    stm32f4_discovery.o(.text) refers to stm32f4_discovery.o(.constdata) for GPIO_CLK
    stm32f4_discovery.o(.text) refers to stm32f4_discovery.o(.data) for GPIO_PORT
    stm32f4_discovery_lcd.o(.text) refers to stm32f4xx_fsmc.o(.text) for FSMC_NORSRAMCmd
    stm32f4_discovery_lcd.o(.text) refers to stm32f4xx_gpio.o(.text) for GPIO_Init
    stm32f4_discovery_lcd.o(.text) refers to stm32f4xx_rcc.o(.text) for RCC_AHB1PeriphClockCmd
    stm32f4_discovery_lcd.o(.text) refers to stm32f4_discovery_lcd.o(.data) for LCD_Currentfonts
    stm32f4_discovery_lcd.o(.text) refers to dfltui.o(.text) for __aeabi_ui2d
    stm32f4_discovery_lcd.o(.text) refers to dflti.o(.text) for __aeabi_i2d
    stm32f4_discovery_lcd.o(.text) refers to cdcmple.o(.text) for __aeabi_cdcmple
    stm32f4_discovery_lcd.o(.text) refers to cdrcmple.o(.text) for __aeabi_cdrcmple
    stm32f4_discovery_lcd.o(.data) refers to stm32f4_discovery_lcd.o(.constdata) for ASCII16x24_Table
    stm32f4xx_usart.o(.text) refers to stm32f4xx_rcc.o(.text) for RCC_APB2PeriphResetCmd
    stm32f4xx_adc.o(.text) refers to stm32f4xx_rcc.o(.text) for RCC_APB2PeriphResetCmd
    stm32f4xx_gpio.o(.text) refers to stm32f4xx_rcc.o(.text) for RCC_AHB1PeriphResetCmd
    stm32f4xx_rcc.o(.text) refers to stm32f4xx_rcc.o(.data) for APBAHBPrescTable
    stm32f4xx_sdio.o(.text) refers to stm32f4xx_rcc.o(.text) for RCC_APB2PeriphResetCmd
    stm32f4xx_syscfg.o(.text) refers to stm32f4xx_rcc.o(.text) for RCC_APB2PeriphResetCmd
    stm32f4xx_tim.o(.text) refers to stm32f4xx_rcc.o(.text) for RCC_APB2PeriphResetCmd
    stm32f4xx_spi.o(.text) refers to stm32f4xx_rcc.o(.text) for RCC_APB2PeriphResetCmd
    stm32f4x7_eth.o(.text) refers to stm32f4xx_rcc.o(.text) for RCC_AHB1PeriphResetCmd
    stm32f4x7_eth.o(.text) refers to stm32f4x7_eth.o(.data) for DMARxDescToGet
    stm32f4x7_eth.o(.text) refers to stm32f4x7_eth.o(.bss) for RX_Frame_Descriptor
    startup_stm32f4xx.o(RESET) refers to startup_stm32f4xx.o(STACK) for __initial_sp
    startup_stm32f4xx.o(RESET) refers to startup_stm32f4xx.o(.text) for Reset_Handler
    startup_stm32f4xx.o(RESET) refers to stm32f4xx_it.o(.text) for NMI_Handler
    startup_stm32f4xx.o(RESET) refers to hal_cm4.o(.emb_text) for SVC_Handler
    startup_stm32f4xx.o(.text) refers to system_stm32f4xx.o(.text) for SystemInit
    startup_stm32f4xx.o(.text) refers to entry.o(.ARM.Collect$$$$00000000) for __main
    netconf.o(.text) refers to rt_cmsis.o(.text) for osMutexCreate
    netconf.o(.text) refers to ethernetif.o(.text) for low_level_init_test
    netconf.o(.text) refers to net.o(.text) for netMACif_set_default
    netconf.o(.text) refers to netconf.o(.bss) for MAC_frame_mutex
    netconf.o(.text) refers to main.o(.bss) for MACFrame_Array
    ethernetif.o(.text) refers to uldiv.o(.text) for __aeabi_uldivmod
    ethernetif.o(.text) refers to stm32f4x7_eth.o(.text) for ETH_GetPTPRegister
    ethernetif.o(.text) refers to memcpya.o(.text) for __aeabi_memcpy
    ethernetif.o(.text) refers to sys_arch.o(.text) for my_sys_mutex_lock
    ethernetif.o(.text) refers to netconf.o(.bss) for MAC_frame_mutex
    ethernetif.o(.text) refers to main.o(.bss) for MACFrame_Array
    ethernetif.o(.text) refers to stm32f4x7_eth.o(.data) for DMA_RX_FRAME_infos
    ethernetif.o(.text) refers to ethernetif.o(.bss) for s_xRxSemaphore
    ethernetif.o(.text) refers to ethernetif.o(.data) for s_pxNetIf
    ethernetif.o(.text) refers to stm32f4x7_eth.o(.bss) for Tx_Buff
    ethernetif.o(.text) refers to def.o(.text) for lwip_htons
    pbuf.o(.text) refers to memp.o(.text) for memp_free
    pbuf.o(.text) refers to mem.o(.text) for mem_free
    pbuf.o(.text) refers to memcpya.o(.text) for __aeabi_memcpy
    pbuf.o(.text) refers to strlen.o(.text) for strlen
    memp.o(.text) refers to memp.o(.bss) for memp_memory
    memp.o(.text) refers to memp.o(.constdata) for memp_sizes
    memp.o(.data) refers to memp.o(.conststring) for .conststring
    mem.o(.text) refers to sys_arch.o(.text) for sys_mutex_new
    mem.o(.text) refers to memseta.o(.text) for __aeabi_memclr
    mem.o(.text) refers to mem.o(.data) for ram
    mem.o(.text) refers to mem.o(.bss) for ram_heap
    sys_arch.o(.text) refers to printf8.o(i.__0printf$8) for __2printf
    sys_arch.o(.text) refers to memseta.o(.text) for __aeabi_memclr4
    sys_arch.o(.text) refers to rt_cmsis.o(.text) for osMessageCreate
    sys_arch.o(.text) refers to sys_arch.o(.constdata) for os_mutex_def_lwip_sys_mutex
    sys_arch.o(.text) refers to sys_arch.o(.data) for lwip_sys_mutex
    sys_arch.o(.text) refers to sys_arch.o(.bss) for thread_pool
    sys_arch.o(.constdata) refers to sys_arch.o(.bss) for os_mutex_cb_lwip_sys_mutex
    ptpd.o(.text) refers to startup.o(.text) for ptpdStartup
    ptpd.o(.text) refers to printf8.o(i.__0printf$8) for __2printf
    ptpd.o(.text) refers to protocol.o(.text) for doState
    ptpd.o(.text) refers to net.o(.text) for netMACCheck
    ptpd.o(.text) refers to sys_arch.o(.text) for sys_arch_mbox_fetch
    ptpd.o(.text) refers to ptpd.o(.bss) for rtOpts
    ptpd.o(.text) refers to main.o(.bss) for MACFrame_Array
    protocol.o(.text) refers to servo.o(.text) for initClock
    protocol.o(.text) refers to timer.o(.text) for timerStop
    protocol.o(.text) refers to sys_time.o(.text) for getRand
    protocol.o(.text) refers to net.o(.text) for netMACShutdown
    protocol.o(.text) refers to bmc.o(.text) for initData
    protocol.o(.text) refers to msg.o(.text) for msgPackHeader
    protocol.o(.text) refers to memseta.o(.text) for __aeabi_memclr4
    protocol.o(.text) refers to arith.o(.text) for fromInternalTime
    protocol.o(.text) refers to ethernetif.o(.text) for new_send_something
    protocol.o(.text) refers to memcpya.o(.text) for __aeabi_memcpy
    protocol.o(.text) refers to sys_arch.o(.text) for my_sys_mutex_lock
    protocol.o(.text) refers to main.o(.bss) for MACFrame_Array
    protocol.o(.text) refers to netconf.o(.bss) for MAC_frame_mutex
    protocol.o(.text) refers to protocol.o(.data) for UTCoffset
    net.o(.text) refers to sys_arch.o(.text) for sys_mutex_new
    net.o(.text) refers to pbuf.o(.text) for pbuf_free
    net.o(.text) refers to memcpya.o(.text) for __aeabi_memcpy
    net.o(.text) refers to ptpd.o(.text) for ptpd_alert
    net.o(.text) refers to printf8.o(i.__0printf$8) for __2printf
    net.o(.text) refers to netconf.o(.bss) for MAC_frame_mutex
    net.o(.text) refers to net.o(.data) for netMACif_default
    startup.o(.text) refers to net.o(.text) for netMACShutdown
    startup.o(.text) refers to protocol.o(.text) for toState
    bmc.o(.text) refers to memcmp.o(.text) for memcmp
    bmc.o(.text) refers to memcpya.o(.text) for __aeabi_memcpy4
    arith.o(.text) refers to ldiv.o(.text) for __aeabi_ldivmod
    timer.o(.text) refers to ptpd.o(.text) for ptpd_alert
    timer.o(.text) refers to sys_arch.o(.text) for sys_timer_new
    timer.o(.text) refers to printf8.o(i.__0printf$8) for __2printf
    timer.o(.text) refers to timer.o(.data) for ptpdTimersExpired
    timer.o(.text) refers to timer.o(.bss) for ptpdTimers
    sys_time.o(.text) refers to printf8.o(i.__0printf$8) for __2printf
    sys_time.o(.text) refers to ethernetif.o(.text) for ETH_PTPTime_GetTime
    sys_time.o(.text) refers to rand.o(.text) for rand
    servo.o(.text) refers to sys_time.o(.text) for adjFreq
    servo.o(.text) refers to net.o(.text) for netEmptyEventQ
    servo.o(.text) refers to sys_arch.o(.text) for my_sys_mutex_lock
    servo.o(.text) refers to arith.o(.text) for floorLog2
    servo.o(.text) refers to netconf.o(.bss) for MAC_frame_mutex
    servo.o(.text) refers to main.o(.bss) for MACFrame_Array
    servo.o(.text) refers to main.o(.data) for OffsetSecond
    msg.o(.text) refers to def.o(.text) for lwip_htons
    arm_cfft_radix4_init_f32.o(.text) refers to arm_cfft_radix4_init_f32.o(.constdata) for twiddleCoef
    arm_cfft_radix4_init_f32.o(.text) refers to arm_common_tables.o(.constdata) for armBitRevTable
    arm_cfft_radix4_init_q15.o(.text) refers to arm_cfft_radix4_init_q15.o(.constdata) for twiddleCoefQ15
    arm_cfft_radix4_init_q15.o(.text) refers to arm_common_tables.o(.constdata) for armBitRevTable
    arm_cfft_radix4_init_q31.o(.text) refers to arm_cfft_radix4_init_q31.o(.constdata) for twiddleCoefQ31
    arm_cfft_radix4_init_q31.o(.text) refers to arm_common_tables.o(.constdata) for armBitRevTable
    arm_dct4_f32.o(.text) refers to arm_scale_f32.o(.text) for arm_scale_f32
    arm_dct4_f32.o(.text) refers to arm_mult_f32.o(.text) for arm_mult_f32
    arm_dct4_f32.o(.text) refers to arm_rfft_f32.o(.text) for arm_rfft_f32
    arm_dct4_f32.o(.text) refers to arm_cmplx_mult_cmplx_f32.o(.text) for arm_cmplx_mult_cmplx_f32
    arm_dct4_init_f32.o(.text) refers to arm_rfft_init_f32.o(.text) for arm_rfft_init_f32
    arm_dct4_init_f32.o(.text) refers to arm_dct4_init_f32.o(.constdata) for .constdata
    arm_dct4_init_q15.o(.text) refers to arm_rfft_init_q15.o(.text) for arm_rfft_init_q15
    arm_dct4_init_q15.o(.text) refers to arm_dct4_init_q15.o(.constdata) for .constdata
    arm_dct4_init_q31.o(.text) refers to arm_rfft_init_q31.o(.text) for arm_rfft_init_q31
    arm_dct4_init_q31.o(.text) refers to arm_dct4_init_q31.o(.constdata) for .constdata
    arm_dct4_q15.o(.text) refers to arm_mult_q15.o(.text) for arm_mult_q15
    arm_dct4_q15.o(.text) refers to arm_shift_q15.o(.text) for arm_shift_q15
    arm_dct4_q15.o(.text) refers to arm_rfft_q15.o(.text) for arm_rfft_q15
    arm_dct4_q15.o(.text) refers to arm_cmplx_mult_cmplx_q15.o(.text) for arm_cmplx_mult_cmplx_q15
    arm_dct4_q31.o(.text) refers to arm_mult_q31.o(.text) for arm_mult_q31
    arm_dct4_q31.o(.text) refers to arm_shift_q31.o(.text) for arm_shift_q31
    arm_dct4_q31.o(.text) refers to arm_rfft_q31.o(.text) for arm_rfft_q31
    arm_dct4_q31.o(.text) refers to arm_cmplx_mult_cmplx_q31.o(.text) for arm_cmplx_mult_cmplx_q31
    arm_rfft_f32.o(.text) refers to arm_cfft_radix4_f32.o(.text) for arm_radix4_butterfly_inverse_f32
    arm_rfft_init_f32.o(.text) refers to arm_cfft_radix4_init_f32.o(.text) for arm_cfft_radix4_init_f32
    arm_rfft_init_f32.o(.text) refers to arm_rfft_init_f32.o(.constdata) for realCoefA
    arm_rfft_init_q15.o(.text) refers to arm_cfft_radix4_init_q15.o(.text) for arm_cfft_radix4_init_q15
    arm_rfft_init_q15.o(.text) refers to arm_rfft_init_q15.o(.constdata) for realCoefAQ15
    arm_rfft_init_q31.o(.text) refers to arm_cfft_radix4_init_q31.o(.text) for arm_cfft_radix4_init_q31
    arm_rfft_init_q31.o(.text) refers to arm_rfft_init_q31.o(.constdata) for realCoefAQ31
    arm_rfft_q15.o(.text) refers to arm_cfft_radix4_q15.o(.text) for arm_radix4_butterfly_inverse_q15
    arm_rfft_q31.o(.text) refers to arm_cfft_radix4_q31.o(.text) for arm_radix4_butterfly_inverse_q31
    arm_scale_q31.o(.text) refers to llsshr.o(.text) for __aeabi_lasr
    arm_shift_q31.o(.text) refers to llshl.o(.text) for __aeabi_llsl
    arm_cos_f32.o(.text) refers to arm_cos_f32.o(.constdata) for cosTable
    arm_cos_q15.o(.text) refers to arm_cos_q15.o(.constdata) for cosTableQ15
    arm_cos_q31.o(.text) refers to arm_cos_q31.o(.constdata) for cosTableQ31
    arm_sin_f32.o(.text) refers to arm_sin_f32.o(.constdata) for sinTable
    arm_sin_q15.o(.text) refers to arm_sin_q15.o(.constdata) for sinTableQ15
    arm_sin_q31.o(.text) refers to arm_sin_q31.o(.constdata) for sinTableQ31
    arm_sqrt_q15.o(.text) refers to arm_common_tables.o(.constdata) for armRecipTableQ15
    arm_sqrt_q31.o(.text) refers to arm_common_tables.o(.constdata) for armRecipTableQ31
    arm_cmplx_mag_q15.o(.text) refers to arm_sqrt_q15.o(.text) for arm_sqrt_q15
    arm_cmplx_mag_q31.o(.text) refers to arm_sqrt_q31.o(.text) for arm_sqrt_q31
    arm_mean_q31.o(.text) refers to ldiv.o(.text) for __aeabi_ldivmod
    arm_rms_q15.o(.text) refers to ldiv.o(.text) for __aeabi_ldivmod
    arm_rms_q15.o(.text) refers to arm_sqrt_q15.o(.text) for arm_sqrt_q15
    arm_rms_q31.o(.text) refers to ldiv.o(.text) for __aeabi_ldivmod
    arm_rms_q31.o(.text) refers to arm_sqrt_q31.o(.text) for arm_sqrt_q31
    arm_std_q15.o(.text) refers to dfltui.o(.text) for __aeabi_ui2d
    arm_std_q15.o(.text) refers to ddiv.o(.text) for __aeabi_ddiv
    arm_std_q15.o(.text) refers to dmul.o(.text) for __aeabi_dmul
    arm_std_q15.o(.text) refers to dfixi.o(.text) for __aeabi_d2iz
    arm_std_q15.o(.text) refers to arm_sqrt_q15.o(.text) for arm_sqrt_q15
    arm_std_q31.o(.text) refers to arm_sqrt_q31.o(.text) for arm_sqrt_q31
    arm_var_q31.o(.text) refers to dfltui.o(.text) for __aeabi_ui2d
    arm_var_q31.o(.text) refers to ddiv.o(.text) for __aeabi_ddiv
    arm_var_q31.o(.text) refers to dmul.o(.text) for __aeabi_dmul
    arm_var_q31.o(.text) refers to dfixi.o(.text) for __aeabi_d2iz
    app.o(.text) refers to drv_spi.o(.text) for DRV_SPI_Initialize
    app.o(.text) refers to stm32f4xx_rcc.o(.text) for RCC_AHB1PeriphClockCmd
    app.o(.text) refers to stm32f4xx_gpio.o(.text) for GPIO_Init
    app.o(.text) refers to drv_canfdspi_api.o(.text) for DRV_CANFDSPI_Reset
    app.o(.text) refers to app.o(.data) for appData
    app.o(.text) refers to app.o(.bss) for txObj
    app.o(.text) refers to lab612_tim_it.o(.data) for SmpCnt1
    drv_canfdspi_api.o(.text) refers to drv_spi.o(.text) for DRV_SPI_TransferData
    drv_canfdspi_api.o(.text) refers to drv_canfdspi_api.o(.bss) for spiTransmitBuffer
    drv_canfdspi_api.o(.text) refers to drv_canfdspi_api.o(.constdata) for crc16_table
    drv_spi.o(.text) refers to drv_spi.o(i.spi_master_init) for spi_master_init
    drv_spi.o(.text) refers to drv_spi.o(i.spi_master_transfer) for spi_master_transfer
    entry.o(.ARM.Collect$$$$00000000) refers (Special) to entry10a.o(.ARM.Collect$$$$0000000D) for __rt_final_cpp
    entry.o(.ARM.Collect$$$$00000000) refers (Special) to entry11a.o(.ARM.Collect$$$$0000000F) for __rt_final_exit
    entry.o(.ARM.Collect$$$$00000000) refers (Special) to entry7b.o(.ARM.Collect$$$$00000008) for _main_clock
    entry.o(.ARM.Collect$$$$00000000) refers (Special) to entry8b.o(.ARM.Collect$$$$0000000A) for _main_cpp_init
    entry.o(.ARM.Collect$$$$00000000) refers (Special) to rtx_conf_cm.o(.ARM.Collect$$$$000000FF) for _main_init
    entry.o(.ARM.Collect$$$$00000000) refers (Special) to entry5.o(.ARM.Collect$$$$00000004) for _main_scatterload
    entry.o(.ARM.Collect$$$$00000000) refers (Special) to entry2.o(.ARM.Collect$$$$00000001) for _main_stk
    uldiv.o(.text) refers to llushr.o(.text) for __aeabi_llsr
    uldiv.o(.text) refers to llshl.o(.text) for __aeabi_llsl
    ldiv.o(.text) refers to uldiv.o(.text) for __aeabi_uldivmod
    rand.o(.text) refers to rand.o(.data) for .data
    printfb.o(i.__0fprintf$bare) refers to printfb.o(i._printf_core) for _printf_core
    printfb.o(i.__0fprintf$bare) refers to main.o(.text) for fputc
    printfb.o(i.__0printf$bare) refers to printfb.o(i._printf_core) for _printf_core
    printfb.o(i.__0printf$bare) refers to main.o(.text) for fputc
    printfb.o(i.__0printf$bare) refers to stdout.o(.data) for __stdout
    printfb.o(i.__0snprintf$bare) refers to printfb.o(i._printf_core) for _printf_core
    printfb.o(i.__0snprintf$bare) refers to printfb.o(i._snputc) for _snputc
    printfb.o(i.__0sprintf$bare) refers to printfb.o(i._printf_core) for _printf_core
    printfb.o(i.__0sprintf$bare) refers to printfb.o(i._sputc) for _sputc
    printfb.o(i.__0vfprintf$bare) refers to printfb.o(i._printf_core) for _printf_core
    printfb.o(i.__0vfprintf$bare) refers to main.o(.text) for fputc
    printfb.o(i.__0vprintf$bare) refers to printfb.o(i._printf_core) for _printf_core
    printfb.o(i.__0vprintf$bare) refers to main.o(.text) for fputc
    printfb.o(i.__0vprintf$bare) refers to stdout.o(.data) for __stdout
    printfb.o(i.__0vsnprintf$bare) refers to printfb.o(i._printf_core) for _printf_core
    printfb.o(i.__0vsnprintf$bare) refers to printfb.o(i._snputc) for _snputc
    printfb.o(i.__0vsprintf$bare) refers to printfb.o(i._printf_core) for _printf_core
    printfb.o(i.__0vsprintf$bare) refers to printfb.o(i._sputc) for _sputc
    printf0.o(i.__0fprintf$0) refers to printf0.o(i._printf_core) for _printf_core
    printf0.o(i.__0fprintf$0) refers to main.o(.text) for fputc
    printf0.o(i.__0printf$0) refers to printf0.o(i._printf_core) for _printf_core
    printf0.o(i.__0printf$0) refers to main.o(.text) for fputc
    printf0.o(i.__0printf$0) refers to stdout.o(.data) for __stdout
    printf0.o(i.__0snprintf$0) refers to printf0.o(i._printf_core) for _printf_core
    printf0.o(i.__0snprintf$0) refers to printf0.o(i._snputc) for _snputc
    printf0.o(i.__0sprintf$0) refers to printf0.o(i._printf_core) for _printf_core
    printf0.o(i.__0sprintf$0) refers to printf0.o(i._sputc) for _sputc
    printf0.o(i.__0vfprintf$0) refers to printf0.o(i._printf_core) for _printf_core
    printf0.o(i.__0vfprintf$0) refers to main.o(.text) for fputc
    printf0.o(i.__0vprintf$0) refers to printf0.o(i._printf_core) for _printf_core
    printf0.o(i.__0vprintf$0) refers to main.o(.text) for fputc
    printf0.o(i.__0vprintf$0) refers to stdout.o(.data) for __stdout
    printf0.o(i.__0vsnprintf$0) refers to printf0.o(i._printf_core) for _printf_core
    printf0.o(i.__0vsnprintf$0) refers to printf0.o(i._snputc) for _snputc
    printf0.o(i.__0vsprintf$0) refers to printf0.o(i._printf_core) for _printf_core
    printf0.o(i.__0vsprintf$0) refers to printf0.o(i._sputc) for _sputc
    printf1.o(i.__0fprintf$1) refers to printf1.o(i._printf_core) for _printf_core
    printf1.o(i.__0fprintf$1) refers to main.o(.text) for fputc
    printf1.o(i.__0printf$1) refers to printf1.o(i._printf_core) for _printf_core
    printf1.o(i.__0printf$1) refers to main.o(.text) for fputc
    printf1.o(i.__0printf$1) refers to stdout.o(.data) for __stdout
    printf1.o(i.__0snprintf$1) refers to printf1.o(i._printf_core) for _printf_core
    printf1.o(i.__0snprintf$1) refers to printf1.o(i._snputc) for _snputc
    printf1.o(i.__0sprintf$1) refers to printf1.o(i._printf_core) for _printf_core
    printf1.o(i.__0sprintf$1) refers to printf1.o(i._sputc) for _sputc
    printf1.o(i.__0vfprintf$1) refers to printf1.o(i._printf_core) for _printf_core
    printf1.o(i.__0vfprintf$1) refers to main.o(.text) for fputc
    printf1.o(i.__0vprintf$1) refers to printf1.o(i._printf_core) for _printf_core
    printf1.o(i.__0vprintf$1) refers to main.o(.text) for fputc
    printf1.o(i.__0vprintf$1) refers to stdout.o(.data) for __stdout
    printf1.o(i.__0vsnprintf$1) refers to printf1.o(i._printf_core) for _printf_core
    printf1.o(i.__0vsnprintf$1) refers to printf1.o(i._snputc) for _snputc
    printf1.o(i.__0vsprintf$1) refers to printf1.o(i._printf_core) for _printf_core
    printf1.o(i.__0vsprintf$1) refers to printf1.o(i._sputc) for _sputc
    printf1.o(i._printf_core) refers to uidiv.o(.text) for __aeabi_uidivmod
    printf2.o(i.__0fprintf$2) refers to printf2.o(i._printf_core) for _printf_core
    printf2.o(i.__0fprintf$2) refers to main.o(.text) for fputc
    printf2.o(i.__0printf$2) refers to printf2.o(i._printf_core) for _printf_core
    printf2.o(i.__0printf$2) refers to main.o(.text) for fputc
    printf2.o(i.__0printf$2) refers to stdout.o(.data) for __stdout
    printf2.o(i.__0snprintf$2) refers to printf2.o(i._printf_core) for _printf_core
    printf2.o(i.__0snprintf$2) refers to printf2.o(i._snputc) for _snputc
    printf2.o(i.__0sprintf$2) refers to printf2.o(i._printf_core) for _printf_core
    printf2.o(i.__0sprintf$2) refers to printf2.o(i._sputc) for _sputc
    printf2.o(i.__0vfprintf$2) refers to printf2.o(i._printf_core) for _printf_core
    printf2.o(i.__0vfprintf$2) refers to main.o(.text) for fputc
    printf2.o(i.__0vprintf$2) refers to printf2.o(i._printf_core) for _printf_core
    printf2.o(i.__0vprintf$2) refers to main.o(.text) for fputc
    printf2.o(i.__0vprintf$2) refers to stdout.o(.data) for __stdout
    printf2.o(i.__0vsnprintf$2) refers to printf2.o(i._printf_core) for _printf_core
    printf2.o(i.__0vsnprintf$2) refers to printf2.o(i._snputc) for _snputc
    printf2.o(i.__0vsprintf$2) refers to printf2.o(i._printf_core) for _printf_core
    printf2.o(i.__0vsprintf$2) refers to printf2.o(i._sputc) for _sputc
    printf3.o(i.__0fprintf$3) refers to printf3.o(i._printf_core) for _printf_core
    printf3.o(i.__0fprintf$3) refers to main.o(.text) for fputc
    printf3.o(i.__0printf$3) refers to printf3.o(i._printf_core) for _printf_core
    printf3.o(i.__0printf$3) refers to main.o(.text) for fputc
    printf3.o(i.__0printf$3) refers to stdout.o(.data) for __stdout
    printf3.o(i.__0snprintf$3) refers to printf3.o(i._printf_core) for _printf_core
    printf3.o(i.__0snprintf$3) refers to printf3.o(i._snputc) for _snputc
    printf3.o(i.__0sprintf$3) refers to printf3.o(i._printf_core) for _printf_core
    printf3.o(i.__0sprintf$3) refers to printf3.o(i._sputc) for _sputc
    printf3.o(i.__0vfprintf$3) refers to printf3.o(i._printf_core) for _printf_core
    printf3.o(i.__0vfprintf$3) refers to main.o(.text) for fputc
    printf3.o(i.__0vprintf$3) refers to printf3.o(i._printf_core) for _printf_core
    printf3.o(i.__0vprintf$3) refers to main.o(.text) for fputc
    printf3.o(i.__0vprintf$3) refers to stdout.o(.data) for __stdout
    printf3.o(i.__0vsnprintf$3) refers to printf3.o(i._printf_core) for _printf_core
    printf3.o(i.__0vsnprintf$3) refers to printf3.o(i._snputc) for _snputc
    printf3.o(i.__0vsprintf$3) refers to printf3.o(i._printf_core) for _printf_core
    printf3.o(i.__0vsprintf$3) refers to printf3.o(i._sputc) for _sputc
    printf3.o(i._printf_core) refers to uidiv.o(.text) for __aeabi_uidivmod
    printf4.o(i.__0fprintf$4) refers to printf4.o(i._printf_core) for _printf_core
    printf4.o(i.__0fprintf$4) refers to main.o(.text) for fputc
    printf4.o(i.__0printf$4) refers to printf4.o(i._printf_core) for _printf_core
    printf4.o(i.__0printf$4) refers to main.o(.text) for fputc
    printf4.o(i.__0printf$4) refers to stdout.o(.data) for __stdout
    printf4.o(i.__0snprintf$4) refers to printf4.o(i._printf_core) for _printf_core
    printf4.o(i.__0snprintf$4) refers to printf4.o(i._snputc) for _snputc
    printf4.o(i.__0sprintf$4) refers to printf4.o(i._printf_core) for _printf_core
    printf4.o(i.__0sprintf$4) refers to printf4.o(i._sputc) for _sputc
    printf4.o(i.__0vfprintf$4) refers to printf4.o(i._printf_core) for _printf_core
    printf4.o(i.__0vfprintf$4) refers to main.o(.text) for fputc
    printf4.o(i.__0vprintf$4) refers to printf4.o(i._printf_core) for _printf_core
    printf4.o(i.__0vprintf$4) refers to main.o(.text) for fputc
    printf4.o(i.__0vprintf$4) refers to stdout.o(.data) for __stdout
    printf4.o(i.__0vsnprintf$4) refers to printf4.o(i._printf_core) for _printf_core
    printf4.o(i.__0vsnprintf$4) refers to printf4.o(i._snputc) for _snputc
    printf4.o(i.__0vsprintf$4) refers to printf4.o(i._printf_core) for _printf_core
    printf4.o(i.__0vsprintf$4) refers to printf4.o(i._sputc) for _sputc
    printf4.o(i._printf_core) refers to uldiv.o(.text) for __aeabi_uldivmod
    printf5.o(i.__0fprintf$5) refers to printf5.o(i._printf_core) for _printf_core
    printf5.o(i.__0fprintf$5) refers to main.o(.text) for fputc
    printf5.o(i.__0printf$5) refers to printf5.o(i._printf_core) for _printf_core
    printf5.o(i.__0printf$5) refers to main.o(.text) for fputc
    printf5.o(i.__0printf$5) refers to stdout.o(.data) for __stdout
    printf5.o(i.__0snprintf$5) refers to printf5.o(i._printf_core) for _printf_core
    printf5.o(i.__0snprintf$5) refers to printf5.o(i._snputc) for _snputc
    printf5.o(i.__0sprintf$5) refers to printf5.o(i._printf_core) for _printf_core
    printf5.o(i.__0sprintf$5) refers to printf5.o(i._sputc) for _sputc
    printf5.o(i.__0vfprintf$5) refers to printf5.o(i._printf_core) for _printf_core
    printf5.o(i.__0vfprintf$5) refers to main.o(.text) for fputc
    printf5.o(i.__0vprintf$5) refers to printf5.o(i._printf_core) for _printf_core
    printf5.o(i.__0vprintf$5) refers to main.o(.text) for fputc
    printf5.o(i.__0vprintf$5) refers to stdout.o(.data) for __stdout
    printf5.o(i.__0vsnprintf$5) refers to printf5.o(i._printf_core) for _printf_core
    printf5.o(i.__0vsnprintf$5) refers to printf5.o(i._snputc) for _snputc
    printf5.o(i.__0vsprintf$5) refers to printf5.o(i._printf_core) for _printf_core
    printf5.o(i.__0vsprintf$5) refers to printf5.o(i._sputc) for _sputc
    printf5.o(i._printf_core) refers to uldiv.o(.text) for __aeabi_uldivmod
    printf6.o(i.__0fprintf$6) refers to printf6.o(i._printf_core) for _printf_core
    printf6.o(i.__0fprintf$6) refers to main.o(.text) for fputc
    printf6.o(i.__0printf$6) refers to printf6.o(i._printf_core) for _printf_core
    printf6.o(i.__0printf$6) refers to main.o(.text) for fputc
    printf6.o(i.__0printf$6) refers to stdout.o(.data) for __stdout
    printf6.o(i.__0snprintf$6) refers to printf6.o(i._printf_core) for _printf_core
    printf6.o(i.__0snprintf$6) refers to printf6.o(i._snputc) for _snputc
    printf6.o(i.__0sprintf$6) refers to printf6.o(i._printf_core) for _printf_core
    printf6.o(i.__0sprintf$6) refers to printf6.o(i._sputc) for _sputc
    printf6.o(i.__0vfprintf$6) refers to printf6.o(i._printf_core) for _printf_core
    printf6.o(i.__0vfprintf$6) refers to main.o(.text) for fputc
    printf6.o(i.__0vprintf$6) refers to printf6.o(i._printf_core) for _printf_core
    printf6.o(i.__0vprintf$6) refers to main.o(.text) for fputc
    printf6.o(i.__0vprintf$6) refers to stdout.o(.data) for __stdout
    printf6.o(i.__0vsnprintf$6) refers to printf6.o(i._printf_core) for _printf_core
    printf6.o(i.__0vsnprintf$6) refers to printf6.o(i._snputc) for _snputc
    printf6.o(i.__0vsprintf$6) refers to printf6.o(i._printf_core) for _printf_core
    printf6.o(i.__0vsprintf$6) refers to printf6.o(i._sputc) for _sputc
    printf6.o(i._printf_core) refers to printf6.o(i._printf_pre_padding) for _printf_pre_padding
    printf6.o(i._printf_core) refers to uidiv.o(.text) for __aeabi_uidivmod
    printf6.o(i._printf_core) refers to printf6.o(i._printf_post_padding) for _printf_post_padding
    printf7.o(i.__0fprintf$7) refers to printf7.o(i._printf_core) for _printf_core
    printf7.o(i.__0fprintf$7) refers to main.o(.text) for fputc
    printf7.o(i.__0printf$7) refers to printf7.o(i._printf_core) for _printf_core
    printf7.o(i.__0printf$7) refers to main.o(.text) for fputc
    printf7.o(i.__0printf$7) refers to stdout.o(.data) for __stdout
    printf7.o(i.__0snprintf$7) refers to printf7.o(i._printf_core) for _printf_core
    printf7.o(i.__0snprintf$7) refers to printf7.o(i._snputc) for _snputc
    printf7.o(i.__0sprintf$7) refers to printf7.o(i._printf_core) for _printf_core
    printf7.o(i.__0sprintf$7) refers to printf7.o(i._sputc) for _sputc
    printf7.o(i.__0vfprintf$7) refers to printf7.o(i._printf_core) for _printf_core
    printf7.o(i.__0vfprintf$7) refers to main.o(.text) for fputc
    printf7.o(i.__0vprintf$7) refers to printf7.o(i._printf_core) for _printf_core
    printf7.o(i.__0vprintf$7) refers to main.o(.text) for fputc
    printf7.o(i.__0vprintf$7) refers to stdout.o(.data) for __stdout
    printf7.o(i.__0vsnprintf$7) refers to printf7.o(i._printf_core) for _printf_core
    printf7.o(i.__0vsnprintf$7) refers to printf7.o(i._snputc) for _snputc
    printf7.o(i.__0vsprintf$7) refers to printf7.o(i._printf_core) for _printf_core
    printf7.o(i.__0vsprintf$7) refers to printf7.o(i._sputc) for _sputc
    printf7.o(i._printf_core) refers to printf7.o(i._printf_pre_padding) for _printf_pre_padding
    printf7.o(i._printf_core) refers to uldiv.o(.text) for __aeabi_uldivmod
    printf7.o(i._printf_core) refers to printf7.o(i._printf_post_padding) for _printf_post_padding
    printf8.o(i.__0fprintf$8) refers to printf8.o(i._printf_core) for _printf_core
    printf8.o(i.__0fprintf$8) refers to main.o(.text) for fputc
    printf8.o(i.__0printf$8) refers to printf8.o(i._printf_core) for _printf_core
    printf8.o(i.__0printf$8) refers to main.o(.text) for fputc
    printf8.o(i.__0printf$8) refers to stdout.o(.data) for __stdout
    printf8.o(i.__0snprintf$8) refers to printf8.o(i._printf_core) for _printf_core
    printf8.o(i.__0snprintf$8) refers to printf8.o(i._snputc) for _snputc
    printf8.o(i.__0sprintf$8) refers to printf8.o(i._printf_core) for _printf_core
    printf8.o(i.__0sprintf$8) refers to printf8.o(i._sputc) for _sputc
    printf8.o(i.__0vfprintf$8) refers to printf8.o(i._printf_core) for _printf_core
    printf8.o(i.__0vfprintf$8) refers to main.o(.text) for fputc
    printf8.o(i.__0vprintf$8) refers to printf8.o(i._printf_core) for _printf_core
    printf8.o(i.__0vprintf$8) refers to main.o(.text) for fputc
    printf8.o(i.__0vprintf$8) refers to stdout.o(.data) for __stdout
    printf8.o(i.__0vsnprintf$8) refers to printf8.o(i._printf_core) for _printf_core
    printf8.o(i.__0vsnprintf$8) refers to printf8.o(i._snputc) for _snputc
    printf8.o(i.__0vsprintf$8) refers to printf8.o(i._printf_core) for _printf_core
    printf8.o(i.__0vsprintf$8) refers to printf8.o(i._sputc) for _sputc
    printf8.o(i._printf_core) refers to printf8.o(i._printf_pre_padding) for _printf_pre_padding
    printf8.o(i._printf_core) refers to uldiv.o(.text) for __aeabi_uldivmod
    printf8.o(i._printf_core) refers to printf8.o(i._printf_post_padding) for _printf_post_padding
    printfa.o(i.__0fprintf) refers (Special) to iusefp.o(.text) for __I$use$fp
    printfa.o(i.__0fprintf) refers to printfa.o(i._printf_core) for _printf_core
    printfa.o(i.__0fprintf) refers to main.o(.text) for fputc
    printfa.o(i.__0printf) refers (Special) to iusefp.o(.text) for __I$use$fp
    printfa.o(i.__0printf) refers to printfa.o(i._printf_core) for _printf_core
    printfa.o(i.__0printf) refers to main.o(.text) for fputc
    printfa.o(i.__0printf) refers to stdout.o(.data) for __stdout
    printfa.o(i.__0snprintf) refers (Special) to iusefp.o(.text) for __I$use$fp
    printfa.o(i.__0snprintf) refers to printfa.o(i._printf_core) for _printf_core
    printfa.o(i.__0snprintf) refers to printfa.o(i._snputc) for _snputc
    printfa.o(i.__0sprintf) refers (Special) to iusefp.o(.text) for __I$use$fp
    printfa.o(i.__0sprintf) refers to printfa.o(i._printf_core) for _printf_core
    printfa.o(i.__0sprintf) refers to printfa.o(i._sputc) for _sputc
    printfa.o(i.__0vfprintf) refers (Special) to iusefp.o(.text) for __I$use$fp
    printfa.o(i.__0vfprintf) refers to printfa.o(i._printf_core) for _printf_core
    printfa.o(i.__0vfprintf) refers to main.o(.text) for fputc
    printfa.o(i.__0vprintf) refers (Special) to iusefp.o(.text) for __I$use$fp
    printfa.o(i.__0vprintf) refers to printfa.o(i._printf_core) for _printf_core
    printfa.o(i.__0vprintf) refers to main.o(.text) for fputc
    printfa.o(i.__0vprintf) refers to stdout.o(.data) for __stdout
    printfa.o(i.__0vsnprintf) refers (Special) to iusefp.o(.text) for __I$use$fp
    printfa.o(i.__0vsnprintf) refers to printfa.o(i._printf_core) for _printf_core
    printfa.o(i.__0vsnprintf) refers to printfa.o(i._snputc) for _snputc
    printfa.o(i.__0vsprintf) refers (Special) to iusefp.o(.text) for __I$use$fp
    printfa.o(i.__0vsprintf) refers to printfa.o(i._printf_core) for _printf_core
    printfa.o(i.__0vsprintf) refers to printfa.o(i._sputc) for _sputc
    printfa.o(i._fp_digits) refers (Special) to iusefp.o(.text) for __I$use$fp
    printfa.o(i._fp_digits) refers to dmul.o(.text) for __aeabi_dmul
    printfa.o(i._fp_digits) refers to ddiv.o(.text) for __aeabi_ddiv
    printfa.o(i._fp_digits) refers to cdrcmple.o(.text) for __aeabi_cdrcmple
    printfa.o(i._fp_digits) refers to dadd.o(.text) for __aeabi_dadd
    printfa.o(i._fp_digits) refers to dfixul.o(.text) for __aeabi_d2ulz
    printfa.o(i._fp_digits) refers to uldiv.o(.text) for __aeabi_uldivmod
    printfa.o(i._printf_core) refers (Special) to iusefp.o(.text) for __I$use$fp
    printfa.o(i._printf_core) refers to printfa.o(i._printf_pre_padding) for _printf_pre_padding
    printfa.o(i._printf_core) refers to uldiv.o(.text) for __aeabi_uldivmod
    printfa.o(i._printf_core) refers to printfa.o(i._printf_post_padding) for _printf_post_padding
    printfa.o(i._printf_core) refers to printfa.o(i._fp_digits) for _fp_digits
    printfa.o(i._printf_core) refers to uidiv.o(.text) for __aeabi_uidivmod
    printfa.o(i._printf_post_padding) refers (Special) to iusefp.o(.text) for __I$use$fp
    printfa.o(i._printf_pre_padding) refers (Special) to iusefp.o(.text) for __I$use$fp
    printfa.o(i._snputc) refers (Special) to iusefp.o(.text) for __I$use$fp
    printfa.o(i._sputc) refers (Special) to iusefp.o(.text) for __I$use$fp
    dmul.o(.text) refers (Special) to iusefp.o(.text) for __I$use$fp
    dmul.o(.text) refers to depilogue.o(.text) for _double_epilogue
    ddiv.o(.text) refers (Special) to iusefp.o(.text) for __I$use$fp
    ddiv.o(.text) refers to depilogue.o(.text) for _double_round
    dflti.o(.text) refers (Special) to iusefp.o(.text) for __I$use$fp
    dflti.o(.text) refers to depilogue.o(.text) for _double_epilogue
    dfltui.o(.text) refers (Special) to iusefp.o(.text) for __I$use$fp
    dfltui.o(.text) refers to depilogue.o(.text) for _double_epilogue
    dfixi.o(.text) refers (Special) to iusefp.o(.text) for __I$use$fp
    dfixi.o(.text) refers to llushr.o(.text) for __aeabi_llsr
    cdcmple.o(.text) refers (Special) to iusefp.o(.text) for __I$use$fp
    cdrcmple.o(.text) refers (Special) to iusefp.o(.text) for __I$use$fp
    entry2.o(.ARM.Collect$$$$00000001) refers to entry2.o(.ARM.Collect$$$$00002712) for __lit__00000000
    entry2.o(.ARM.Collect$$$$00002712) refers to startup_stm32f4xx.o(STACK) for __initial_sp
    entry2.o(__vectab_stack_and_reset_area) refers to startup_stm32f4xx.o(STACK) for __initial_sp
    entry2.o(__vectab_stack_and_reset_area) refers to entry.o(.ARM.Collect$$$$00000000) for __main
    entry5.o(.ARM.Collect$$$$00000004) refers to init.o(.text) for __scatterload
    depilogue.o(.text) refers to llshl.o(.text) for __aeabi_llsl
    depilogue.o(.text) refers to llushr.o(.text) for __aeabi_llsr
    dadd.o(.text) refers to llshl.o(.text) for __aeabi_llsl
    dadd.o(.text) refers to llsshr.o(.text) for __aeabi_lasr
    dadd.o(.text) refers to depilogue.o(.text) for _double_epilogue
    dfixul.o(.text) refers to llushr.o(.text) for __aeabi_llsr
    dfixul.o(.text) refers to llshl.o(.text) for __aeabi_llsl
    init.o(.text) refers to entry5.o(.ARM.Collect$$$$00000004) for __main_after_scatterload
    drv_spi.o(i.spi_master_init) refers to stm32f4xx_rcc.o(.text) for RCC_APB1PeriphClockCmd
    drv_spi.o(i.spi_master_init) refers to stm32f4xx_gpio.o(.text) for GPIO_DeInit
    drv_spi.o(i.spi_master_init) refers to stm32f4xx_spi.o(.text) for SPI_Init
    drv_spi.o(i.spi_master_transfer) refers to stm32f4xx_gpio.o(.text) for GPIO_ResetBits
    drv_spi.o(i.spi_master_transfer) refers to stm32f4xx_spi.o(.text) for SPI_I2S_GetFlagStatus


==============================================================================

Removing Unused input sections from the image.

    Removing main.o(.emb_text), (8 bytes).
    Removing main.o(.constdata), (120 bytes).
    Removing stm32f4x7_eth_bsp.o(.emb_text), (8 bytes).
    Removing stm32f4xx_it.o(.emb_text), (8 bytes).
    Removing system_stm32f4xx.o(.emb_text), (8 bytes).
    Removing lab612_tim.o(.emb_text), (8 bytes).
    Removing lab612_tim_it.o(.emb_text), (8 bytes).
    Removing lab612_tim_it.o(.constdata), (120 bytes).
    Removing lab612_adc.o(.emb_text), (8 bytes).
    Removing rt_cmsis.o(.emb_text), (8 bytes).
    Removing rt_system.o(.emb_text), (0 bytes).
    Removing stm32f4_discovery.o(.emb_text), (8 bytes).
    Removing stm32f4_discovery_lcd.o(.emb_text), (8 bytes).
    Removing stm32f4_discovery_lcd.o(.text), (4036 bytes).
    Removing stm32f4_discovery_lcd.o(.constdata), (10704 bytes).
    Removing stm32f4_discovery_lcd.o(.data), (40 bytes).
    Removing stm32f4xx_usart.o(.emb_text), (8 bytes).
    Removing misc.o(.emb_text), (8 bytes).
    Removing stm32f4xx_adc.o(.emb_text), (8 bytes).
    Removing stm32f4xx_dma.o(.emb_text), (8 bytes).
    Removing stm32f4xx_exti.o(.emb_text), (8 bytes).
    Removing stm32f4xx_fsmc.o(.emb_text), (8 bytes).
    Removing stm32f4xx_fsmc.o(.text), (1544 bytes).
    Removing stm32f4xx_gpio.o(.emb_text), (8 bytes).
    Removing stm32f4xx_rcc.o(.emb_text), (8 bytes).
    Removing stm32f4xx_sdio.o(.emb_text), (8 bytes).
    Removing stm32f4xx_syscfg.o(.emb_text), (8 bytes).
    Removing stm32f4xx_tim.o(.emb_text), (8 bytes).
    Removing stm32f4xx_spi.o(.emb_text), (8 bytes).
    Removing stm32f4x7_eth.o(.emb_text), (8 bytes).
    Removing startup_stm32f4xx.o(HEAP), (512 bytes).
    Removing netconf.o(.emb_text), (8 bytes).
    Removing ethernetif.o(.emb_text), (8 bytes).
    Removing memp.o(.conststring), (146 bytes).
    Removing memp.o(.data), (52 bytes).
    Removing sys_arch.o(.emb_text), (8 bytes).
    Removing time_msg.o(.emb_text), (8 bytes).
    Removing ptpd.o(.emb_text), (8 bytes).
    Removing ptpd.o(.data), (4 bytes).
    Removing protocol.o(.emb_text), (8 bytes).
    Removing net.o(.emb_text), (8 bytes).
    Removing startup.o(.emb_text), (8 bytes).
    Removing bmc.o(.emb_text), (8 bytes).
    Removing arith.o(.emb_text), (8 bytes).
    Removing timer.o(.emb_text), (8 bytes).
    Removing sys_time.o(.emb_text), (8 bytes).
    Removing servo.o(.emb_text), (8 bytes).
    Removing msg.o(.emb_text), (8 bytes).
    Removing arm_common_tables.o(.emb_text), (8 bytes).
    Removing arm_common_tables.o(.constdata), (896 bytes).
    Removing arm_cfft_radix4_f32.o(.emb_text), (8 bytes).
    Removing arm_cfft_radix4_f32.o(.text), (4004 bytes).
    Removing arm_cfft_radix4_init_f32.o(.emb_text), (8 bytes).
    Removing arm_cfft_radix4_init_f32.o(.text), (160 bytes).
    Removing arm_cfft_radix4_init_f32.o(.constdata), (8192 bytes).
    Removing arm_cfft_radix4_init_q15.o(.emb_text), (8 bytes).
    Removing arm_cfft_radix4_init_q15.o(.text), (112 bytes).
    Removing arm_cfft_radix4_init_q15.o(.constdata), (4096 bytes).
    Removing arm_cfft_radix4_init_q31.o(.emb_text), (8 bytes).
    Removing arm_cfft_radix4_init_q31.o(.text), (112 bytes).
    Removing arm_cfft_radix4_init_q31.o(.constdata), (8192 bytes).
    Removing arm_cfft_radix4_q15.o(.emb_text), (8 bytes).
    Removing arm_cfft_radix4_q15.o(.text), (2056 bytes).
    Removing arm_cfft_radix4_q31.o(.emb_text), (8 bytes).
    Removing arm_cfft_radix4_q31.o(.text), (4194 bytes).
    Removing arm_dct4_f32.o(.emb_text), (8 bytes).
    Removing arm_dct4_f32.o(.text), (470 bytes).
    Removing arm_dct4_init_f32.o(.emb_text), (8 bytes).
    Removing arm_dct4_init_f32.o(.text), (156 bytes).
    Removing arm_dct4_init_f32.o(.constdata), (32280 bytes).
    Removing arm_dct4_init_q15.o(.emb_text), (8 bytes).
    Removing arm_dct4_init_q15.o(.text), (148 bytes).
    Removing arm_dct4_init_q15.o(.constdata), (16152 bytes).
    Removing arm_dct4_init_q31.o(.emb_text), (8 bytes).
    Removing arm_dct4_init_q31.o(.text), (148 bytes).
    Removing arm_dct4_init_q31.o(.constdata), (32280 bytes).
    Removing arm_dct4_q15.o(.emb_text), (8 bytes).
    Removing arm_dct4_q15.o(.text), (448 bytes).
    Removing arm_dct4_q31.o(.emb_text), (8 bytes).
    Removing arm_dct4_q31.o(.text), (386 bytes).
    Removing arm_rfft_f32.o(.emb_text), (8 bytes).
    Removing arm_rfft_f32.o(.text), (672 bytes).
    Removing arm_rfft_init_f32.o(.emb_text), (8 bytes).
    Removing arm_rfft_init_f32.o(.text), (136 bytes).
    Removing arm_rfft_init_f32.o(.constdata), (16384 bytes).
    Removing arm_rfft_init_q15.o(.emb_text), (8 bytes).
    Removing arm_rfft_init_q15.o(.text), (140 bytes).
    Removing arm_rfft_init_q15.o(.constdata), (8192 bytes).
    Removing arm_rfft_init_q31.o(.emb_text), (8 bytes).
    Removing arm_rfft_init_q31.o(.text), (128 bytes).
    Removing arm_rfft_init_q31.o(.constdata), (8192 bytes).
    Removing arm_rfft_q15.o(.emb_text), (8 bytes).
    Removing arm_rfft_q15.o(.text), (530 bytes).
    Removing arm_rfft_q31.o(.emb_text), (8 bytes).
    Removing arm_rfft_q31.o(.text), (846 bytes).
    Removing arm_abs_f32.o(.emb_text), (8 bytes).
    Removing arm_abs_f32.o(.text), (88 bytes).
    Removing arm_abs_q7.o(.emb_text), (8 bytes).
    Removing arm_abs_q7.o(.text), (180 bytes).
    Removing arm_abs_q15.o(.emb_text), (8 bytes).
    Removing arm_abs_q15.o(.text), (134 bytes).
    Removing arm_abs_q31.o(.emb_text), (8 bytes).
    Removing arm_abs_q31.o(.text), (160 bytes).
    Removing arm_add_f32.o(.emb_text), (8 bytes).
    Removing arm_add_f32.o(.text), (108 bytes).
    Removing arm_add_q7.o(.emb_text), (8 bytes).
    Removing arm_add_q7.o(.text), (56 bytes).
    Removing arm_add_q15.o(.emb_text), (8 bytes).
    Removing arm_add_q15.o(.text), (66 bytes).
    Removing arm_add_q31.o(.emb_text), (8 bytes).
    Removing arm_add_q31.o(.text), (78 bytes).
    Removing arm_dot_prod_f32.o(.emb_text), (8 bytes).
    Removing arm_dot_prod_f32.o(.text), (144 bytes).
    Removing arm_dot_prod_q7.o(.emb_text), (8 bytes).
    Removing arm_dot_prod_q7.o(.text), (122 bytes).
    Removing arm_dot_prod_q15.o(.emb_text), (8 bytes).
    Removing arm_dot_prod_q15.o(.text), (160 bytes).
    Removing arm_dot_prod_q31.o(.emb_text), (8 bytes).
    Removing arm_dot_prod_q31.o(.text), (184 bytes).
    Removing arm_mult_f32.o(.emb_text), (8 bytes).
    Removing arm_mult_f32.o(.text), (108 bytes).
    Removing arm_mult_q7.o(.emb_text), (8 bytes).
    Removing arm_mult_q7.o(.text), (180 bytes).
    Removing arm_mult_q15.o(.emb_text), (8 bytes).
    Removing arm_mult_q15.o(.text), (128 bytes).
    Removing arm_mult_q31.o(.emb_text), (8 bytes).
    Removing arm_mult_q31.o(.text), (194 bytes).
    Removing arm_negate_f32.o(.emb_text), (8 bytes).
    Removing arm_negate_f32.o(.text), (88 bytes).
    Removing arm_negate_q7.o(.emb_text), (8 bytes).
    Removing arm_negate_q7.o(.text), (140 bytes).
    Removing arm_negate_q15.o(.emb_text), (8 bytes).
    Removing arm_negate_q15.o(.text), (94 bytes).
    Removing arm_negate_q31.o(.emb_text), (8 bytes).
    Removing arm_negate_q31.o(.text), (118 bytes).
    Removing arm_offset_f32.o(.emb_text), (8 bytes).
    Removing arm_offset_f32.o(.text), (88 bytes).
    Removing arm_offset_q7.o(.emb_text), (8 bytes).
    Removing arm_offset_q7.o(.text), (84 bytes).
    Removing arm_offset_q15.o(.emb_text), (8 bytes).
    Removing arm_offset_q15.o(.text), (66 bytes).
    Removing arm_offset_q31.o(.emb_text), (8 bytes).
    Removing arm_offset_q31.o(.text), (68 bytes).
    Removing arm_scale_f32.o(.emb_text), (8 bytes).
    Removing arm_scale_f32.o(.text), (88 bytes).
    Removing arm_scale_q7.o(.emb_text), (8 bytes).
    Removing arm_scale_q7.o(.text), (200 bytes).
    Removing arm_scale_q15.o(.emb_text), (8 bytes).
    Removing arm_scale_q15.o(.text), (142 bytes).
    Removing arm_scale_q31.o(.emb_text), (8 bytes).
    Removing arm_scale_q31.o(.text), (226 bytes).
    Removing arm_shift_q7.o(.emb_text), (8 bytes).
    Removing arm_shift_q7.o(.text), (280 bytes).
    Removing arm_shift_q15.o(.emb_text), (8 bytes).
    Removing arm_shift_q15.o(.text), (222 bytes).
    Removing arm_shift_q31.o(.emb_text), (8 bytes).
    Removing arm_shift_q31.o(.text), (270 bytes).
    Removing arm_sub_f32.o(.emb_text), (8 bytes).
    Removing arm_sub_f32.o(.text), (108 bytes).
    Removing arm_sub_q7.o(.emb_text), (8 bytes).
    Removing arm_sub_q7.o(.text), (56 bytes).
    Removing arm_sub_q15.o(.emb_text), (8 bytes).
    Removing arm_sub_q15.o(.text), (66 bytes).
    Removing arm_sub_q31.o(.emb_text), (8 bytes).
    Removing arm_sub_q31.o(.text), (78 bytes).
    Removing arm_cos_f32.o(.emb_text), (8 bytes).
    Removing arm_cos_f32.o(.text), (308 bytes).
    Removing arm_cos_f32.o(.constdata), (1036 bytes).
    Removing arm_cos_q15.o(.emb_text), (8 bytes).
    Removing arm_cos_q15.o(.text), (192 bytes).
    Removing arm_cos_q15.o(.constdata), (518 bytes).
    Removing arm_cos_q31.o(.emb_text), (8 bytes).
    Removing arm_cos_q31.o(.text), (240 bytes).
    Removing arm_cos_q31.o(.constdata), (1036 bytes).
    Removing arm_sin_f32.o(.emb_text), (8 bytes).
    Removing arm_sin_f32.o(.text), (292 bytes).
    Removing arm_sin_f32.o(.constdata), (1036 bytes).
    Removing arm_sin_q15.o(.emb_text), (8 bytes).
    Removing arm_sin_q15.o(.text), (192 bytes).
    Removing arm_sin_q15.o(.constdata), (518 bytes).
    Removing arm_sin_q31.o(.emb_text), (8 bytes).
    Removing arm_sin_q31.o(.text), (236 bytes).
    Removing arm_sin_q31.o(.constdata), (1036 bytes).
    Removing arm_sqrt_q15.o(.emb_text), (8 bytes).
    Removing arm_sqrt_q15.o(.text), (380 bytes).
    Removing arm_sqrt_q31.o(.emb_text), (8 bytes).
    Removing arm_sqrt_q31.o(.text), (688 bytes).
    Removing arm_cmplx_conj_f32.o(.emb_text), (8 bytes).
    Removing arm_cmplx_conj_f32.o(.text), (128 bytes).
    Removing arm_cmplx_conj_q15.o(.emb_text), (8 bytes).
    Removing arm_cmplx_conj_q15.o(.text), (138 bytes).
    Removing arm_cmplx_conj_q31.o(.emb_text), (8 bytes).
    Removing arm_cmplx_conj_q31.o(.text), (138 bytes).
    Removing arm_cmplx_dot_prod_f32.o(.emb_text), (8 bytes).
    Removing arm_cmplx_dot_prod_f32.o(.text), (260 bytes).
    Removing arm_cmplx_dot_prod_q15.o(.emb_text), (8 bytes).
    Removing arm_cmplx_dot_prod_q15.o(.text), (222 bytes).
    Removing arm_cmplx_dot_prod_q31.o(.emb_text), (8 bytes).
    Removing arm_cmplx_dot_prod_q31.o(.text), (342 bytes).
    Removing arm_cmplx_mag_f32.o(.emb_text), (8 bytes).
    Removing arm_cmplx_mag_f32.o(.text), (268 bytes).
    Removing arm_cmplx_mag_q15.o(.emb_text), (8 bytes).
    Removing arm_cmplx_mag_q15.o(.text), (276 bytes).
    Removing arm_cmplx_mag_q31.o(.emb_text), (8 bytes).
    Removing arm_cmplx_mag_q31.o(.text), (206 bytes).
    Removing arm_cmplx_mag_squared_f32.o(.emb_text), (8 bytes).
    Removing arm_cmplx_mag_squared_f32.o(.text), (168 bytes).
    Removing arm_cmplx_mag_squared_q15.o(.emb_text), (8 bytes).
    Removing arm_cmplx_mag_squared_q15.o(.text), (258 bytes).
    Removing arm_cmplx_mag_squared_q31.o(.emb_text), (8 bytes).
    Removing arm_cmplx_mag_squared_q31.o(.text), (172 bytes).
    Removing arm_cmplx_mult_cmplx_f32.o(.emb_text), (8 bytes).
    Removing arm_cmplx_mult_cmplx_f32.o(.text), (308 bytes).
    Removing arm_cmplx_mult_cmplx_q15.o(.emb_text), (8 bytes).
    Removing arm_cmplx_mult_cmplx_q15.o(.text), (314 bytes).
    Removing arm_cmplx_mult_cmplx_q31.o(.emb_text), (8 bytes).
    Removing arm_cmplx_mult_cmplx_q31.o(.text), (318 bytes).
    Removing arm_cmplx_mult_real_f32.o(.emb_text), (8 bytes).
    Removing arm_cmplx_mult_real_f32.o(.text), (188 bytes).
    Removing arm_cmplx_mult_real_q15.o(.emb_text), (8 bytes).
    Removing arm_cmplx_mult_real_q15.o(.text), (208 bytes).
    Removing arm_cmplx_mult_real_q31.o(.emb_text), (8 bytes).
    Removing arm_cmplx_mult_real_q31.o(.text), (302 bytes).
    Removing arm_max_f32.o(.emb_text), (8 bytes).
    Removing arm_max_f32.o(.text), (52 bytes).
    Removing arm_max_q7.o(.emb_text), (8 bytes).
    Removing arm_max_q7.o(.text), (186 bytes).
    Removing arm_max_q15.o(.emb_text), (8 bytes).
    Removing arm_max_q15.o(.text), (40 bytes).
    Removing arm_max_q31.o(.emb_text), (8 bytes).
    Removing arm_max_q31.o(.text), (36 bytes).
    Removing arm_mean_f32.o(.emb_text), (8 bytes).
    Removing arm_mean_f32.o(.text), (116 bytes).
    Removing arm_mean_q7.o(.emb_text), (8 bytes).
    Removing arm_mean_q7.o(.text), (70 bytes).
    Removing arm_mean_q15.o(.emb_text), (8 bytes).
    Removing arm_mean_q15.o(.text), (70 bytes).
    Removing arm_mean_q31.o(.emb_text), (8 bytes).
    Removing arm_mean_q31.o(.text), (108 bytes).
    Removing arm_min_f32.o(.emb_text), (8 bytes).
    Removing arm_min_f32.o(.text), (52 bytes).
    Removing arm_min_q7.o(.emb_text), (8 bytes).
    Removing arm_min_q7.o(.text), (178 bytes).
    Removing arm_min_q15.o(.emb_text), (8 bytes).
    Removing arm_min_q15.o(.text), (40 bytes).
    Removing arm_min_q31.o(.emb_text), (8 bytes).
    Removing arm_min_q31.o(.text), (36 bytes).
    Removing arm_power_f32.o(.emb_text), (8 bytes).
    Removing arm_power_f32.o(.text), (144 bytes).
    Removing arm_power_q7.o(.emb_text), (8 bytes).
    Removing arm_power_q7.o(.text), (86 bytes).
    Removing arm_power_q15.o(.emb_text), (8 bytes).
    Removing arm_power_q15.o(.text), (164 bytes).
    Removing arm_power_q31.o(.emb_text), (8 bytes).
    Removing arm_power_q31.o(.text), (146 bytes).
    Removing arm_rms_f32.o(.emb_text), (8 bytes).
    Removing arm_rms_f32.o(.text), (184 bytes).
    Removing arm_rms_q15.o(.emb_text), (8 bytes).
    Removing arm_rms_q15.o(.text), (202 bytes).
    Removing arm_rms_q31.o(.emb_text), (8 bytes).
    Removing arm_rms_q31.o(.text), (134 bytes).
    Removing arm_std_f32.o(.emb_text), (8 bytes).
    Removing arm_std_f32.o(.text), (336 bytes).
    Removing arm_std_q15.o(.emb_text), (8 bytes).
    Removing arm_std_q15.o(.text), (444 bytes).
    Removing arm_std_q31.o(.emb_text), (8 bytes).
    Removing arm_std_q31.o(.text), (320 bytes).
    Removing arm_var_f32.o(.emb_text), (8 bytes).
    Removing arm_var_f32.o(.text), (312 bytes).
    Removing arm_var_q15.o(.emb_text), (8 bytes).
    Removing arm_var_q15.o(.text), (424 bytes).
    Removing arm_var_q31.o(.emb_text), (8 bytes).
    Removing arm_var_q31.o(.text), (376 bytes).
    Removing app.o(.emb_text), (8 bytes).
    Removing app.o(.constdata), (120 bytes).
    Removing drv_canfdspi_api.o(.emb_text), (8 bytes).
    Removing drv_spi.o(.emb_text), (8 bytes).
    Removing dmul.o(.text), (228 bytes).
    Removing ddiv.o(.text), (222 bytes).
    Removing dflti.o(.text), (34 bytes).
    Removing dfltui.o(.text), (26 bytes).
    Removing dfixi.o(.text), (62 bytes).
    Removing cdcmple.o(.text), (48 bytes).
    Removing cdrcmple.o(.text), (48 bytes).
    Removing depilogue.o(.text), (186 bytes).
    Removing dadd.o(.text), (334 bytes).
    Removing dfixul.o(.text), (48 bytes).

287 unused section(s) (total 190246 bytes) removed from the image.

==============================================================================

Image Symbol Table

    Local Symbols

    Symbol Name                              Value     Ov Type        Size  Object(Section)

    ../clib/../cmprslib/zerorunl2.c          0x00000000   Number         0  __dczerorl2.o ABSOLUTE
    ../clib/microlib/division.c              0x00000000   Number         0  uidiv.o ABSOLUTE
    ../clib/microlib/division.c              0x00000000   Number         0  ldiv.o ABSOLUTE
    ../clib/microlib/division.c              0x00000000   Number         0  uldiv.o ABSOLUTE
    ../clib/microlib/init/entry.s            0x00000000   Number         0  entry8a.o ABSOLUTE
    ../clib/microlib/init/entry.s            0x00000000   Number         0  entry8b.o ABSOLUTE
    ../clib/microlib/init/entry.s            0x00000000   Number         0  entry11a.o ABSOLUTE
    ../clib/microlib/init/entry.s            0x00000000   Number         0  entry.o ABSOLUTE
    ../clib/microlib/init/entry.s            0x00000000   Number         0  entry10b.o ABSOLUTE
    ../clib/microlib/init/entry.s            0x00000000   Number         0  entry2.o ABSOLUTE
    ../clib/microlib/init/entry.s            0x00000000   Number         0  entry11b.o ABSOLUTE
    ../clib/microlib/init/entry.s            0x00000000   Number         0  entry5.o ABSOLUTE
    ../clib/microlib/init/entry.s            0x00000000   Number         0  entry10a.o ABSOLUTE
    ../clib/microlib/init/entry.s            0x00000000   Number         0  entry7a.o ABSOLUTE
    ../clib/microlib/init/entry.s            0x00000000   Number         0  entry7b.o ABSOLUTE
    ../clib/microlib/longlong.c              0x00000000   Number         0  llushr.o ABSOLUTE
    ../clib/microlib/longlong.c              0x00000000   Number         0  llsshr.o ABSOLUTE
    ../clib/microlib/longlong.c              0x00000000   Number         0  llshl.o ABSOLUTE
    ../clib/microlib/printf/printf.c         0x00000000   Number         0  printf6.o ABSOLUTE
    ../clib/microlib/printf/printf.c         0x00000000   Number         0  printf5.o ABSOLUTE
    ../clib/microlib/printf/printf.c         0x00000000   Number         0  printf4.o ABSOLUTE
    ../clib/microlib/printf/printf.c         0x00000000   Number         0  printf3.o ABSOLUTE
    ../clib/microlib/printf/printf.c         0x00000000   Number         0  printf2.o ABSOLUTE
    ../clib/microlib/printf/printf.c         0x00000000   Number         0  printf1.o ABSOLUTE
    ../clib/microlib/printf/printf.c         0x00000000   Number         0  printfb.o ABSOLUTE
    ../clib/microlib/printf/printf.c         0x00000000   Number         0  printf0.o ABSOLUTE
    ../clib/microlib/printf/printf.c         0x00000000   Number         0  printfa.o ABSOLUTE
    ../clib/microlib/printf/printf.c         0x00000000   Number         0  printf8.o ABSOLUTE
    ../clib/microlib/printf/printf.c         0x00000000   Number         0  printf7.o ABSOLUTE
    ../clib/microlib/printf/stubs.s          0x00000000   Number         0  stubs.o ABSOLUTE
    ../clib/microlib/stdio/streams.c         0x00000000   Number         0  stdout.o ABSOLUTE
    ../clib/microlib/stdlib/rand.c           0x00000000   Number         0  rand.o ABSOLUTE
    ../clib/microlib/string/memcmp.c         0x00000000   Number         0  memcmp.o ABSOLUTE
    ../clib/microlib/string/memcpy.c         0x00000000   Number         0  memcpya.o ABSOLUTE
    ../clib/microlib/string/memcpy.c         0x00000000   Number         0  memcpyb.o ABSOLUTE
    ../clib/microlib/string/memset.c         0x00000000   Number         0  memseta.o ABSOLUTE
    ../clib/microlib/string/strlen.c         0x00000000   Number         0  strlen.o ABSOLUTE
    ../clib/microlib/stubs.s                 0x00000000   Number         0  iusefp.o ABSOLUTE
    ../fplib/microlib/fpadd.c                0x00000000   Number         0  dadd.o ABSOLUTE
    ../fplib/microlib/fpdiv.c                0x00000000   Number         0  ddiv.o ABSOLUTE
    ../fplib/microlib/fpepilogue.c           0x00000000   Number         0  depilogue.o ABSOLUTE
    ../fplib/microlib/fpfix.c                0x00000000   Number         0  dfixi.o ABSOLUTE
    ../fplib/microlib/fpfix.c                0x00000000   Number         0  dfixul.o ABSOLUTE
    ../fplib/microlib/fpflt.c                0x00000000   Number         0  dflti.o ABSOLUTE
    ../fplib/microlib/fpflt.c                0x00000000   Number         0  dfltui.o ABSOLUTE
    ../fplib/microlib/fpmul.c                0x00000000   Number         0  dmul.o ABSOLUTE
    ..\..\libraries\CANFD\app\app.c          0x00000000   Number         0  app.o ABSOLUTE
    ..\..\libraries\CANFD\canfdspi\drv_canfdspi_api.c 0x00000000   Number         0  drv_canfdspi_api.o ABSOLUTE
    ..\..\libraries\CANFD\spi\drv_spi.c      0x00000000   Number         0  drv_spi.o ABSOLUTE
    ..\..\libraries\CMSIS\DSP_Lib\Source\BasicMathFunctions\arm_abs_f32.c 0x00000000   Number         0  arm_abs_f32.o ABSOLUTE
    ..\..\libraries\CMSIS\DSP_Lib\Source\BasicMathFunctions\arm_abs_q15.c 0x00000000   Number         0  arm_abs_q15.o ABSOLUTE
    ..\..\libraries\CMSIS\DSP_Lib\Source\BasicMathFunctions\arm_abs_q31.c 0x00000000   Number         0  arm_abs_q31.o ABSOLUTE
    ..\..\libraries\CMSIS\DSP_Lib\Source\BasicMathFunctions\arm_abs_q7.c 0x00000000   Number         0  arm_abs_q7.o ABSOLUTE
    ..\..\libraries\CMSIS\DSP_Lib\Source\BasicMathFunctions\arm_add_f32.c 0x00000000   Number         0  arm_add_f32.o ABSOLUTE
    ..\..\libraries\CMSIS\DSP_Lib\Source\BasicMathFunctions\arm_add_q15.c 0x00000000   Number         0  arm_add_q15.o ABSOLUTE
    ..\..\libraries\CMSIS\DSP_Lib\Source\BasicMathFunctions\arm_add_q31.c 0x00000000   Number         0  arm_add_q31.o ABSOLUTE
    ..\..\libraries\CMSIS\DSP_Lib\Source\BasicMathFunctions\arm_add_q7.c 0x00000000   Number         0  arm_add_q7.o ABSOLUTE
    ..\..\libraries\CMSIS\DSP_Lib\Source\BasicMathFunctions\arm_dot_prod_f32.c 0x00000000   Number         0  arm_dot_prod_f32.o ABSOLUTE
    ..\..\libraries\CMSIS\DSP_Lib\Source\BasicMathFunctions\arm_dot_prod_q15.c 0x00000000   Number         0  arm_dot_prod_q15.o ABSOLUTE
    ..\..\libraries\CMSIS\DSP_Lib\Source\BasicMathFunctions\arm_dot_prod_q31.c 0x00000000   Number         0  arm_dot_prod_q31.o ABSOLUTE
    ..\..\libraries\CMSIS\DSP_Lib\Source\BasicMathFunctions\arm_dot_prod_q7.c 0x00000000   Number         0  arm_dot_prod_q7.o ABSOLUTE
    ..\..\libraries\CMSIS\DSP_Lib\Source\BasicMathFunctions\arm_mult_f32.c 0x00000000   Number         0  arm_mult_f32.o ABSOLUTE
    ..\..\libraries\CMSIS\DSP_Lib\Source\BasicMathFunctions\arm_mult_q15.c 0x00000000   Number         0  arm_mult_q15.o ABSOLUTE
    ..\..\libraries\CMSIS\DSP_Lib\Source\BasicMathFunctions\arm_mult_q31.c 0x00000000   Number         0  arm_mult_q31.o ABSOLUTE
    ..\..\libraries\CMSIS\DSP_Lib\Source\BasicMathFunctions\arm_mult_q7.c 0x00000000   Number         0  arm_mult_q7.o ABSOLUTE
    ..\..\libraries\CMSIS\DSP_Lib\Source\BasicMathFunctions\arm_negate_f32.c 0x00000000   Number         0  arm_negate_f32.o ABSOLUTE
    ..\..\libraries\CMSIS\DSP_Lib\Source\BasicMathFunctions\arm_negate_q15.c 0x00000000   Number         0  arm_negate_q15.o ABSOLUTE
    ..\..\libraries\CMSIS\DSP_Lib\Source\BasicMathFunctions\arm_negate_q31.c 0x00000000   Number         0  arm_negate_q31.o ABSOLUTE
    ..\..\libraries\CMSIS\DSP_Lib\Source\BasicMathFunctions\arm_negate_q7.c 0x00000000   Number         0  arm_negate_q7.o ABSOLUTE
    ..\..\libraries\CMSIS\DSP_Lib\Source\BasicMathFunctions\arm_offset_f32.c 0x00000000   Number         0  arm_offset_f32.o ABSOLUTE
    ..\..\libraries\CMSIS\DSP_Lib\Source\BasicMathFunctions\arm_offset_q15.c 0x00000000   Number         0  arm_offset_q15.o ABSOLUTE
    ..\..\libraries\CMSIS\DSP_Lib\Source\BasicMathFunctions\arm_offset_q31.c 0x00000000   Number         0  arm_offset_q31.o ABSOLUTE
    ..\..\libraries\CMSIS\DSP_Lib\Source\BasicMathFunctions\arm_offset_q7.c 0x00000000   Number         0  arm_offset_q7.o ABSOLUTE
    ..\..\libraries\CMSIS\DSP_Lib\Source\BasicMathFunctions\arm_scale_f32.c 0x00000000   Number         0  arm_scale_f32.o ABSOLUTE
    ..\..\libraries\CMSIS\DSP_Lib\Source\BasicMathFunctions\arm_scale_q15.c 0x00000000   Number         0  arm_scale_q15.o ABSOLUTE
    ..\..\libraries\CMSIS\DSP_Lib\Source\BasicMathFunctions\arm_scale_q31.c 0x00000000   Number         0  arm_scale_q31.o ABSOLUTE
    ..\..\libraries\CMSIS\DSP_Lib\Source\BasicMathFunctions\arm_scale_q7.c 0x00000000   Number         0  arm_scale_q7.o ABSOLUTE
    ..\..\libraries\CMSIS\DSP_Lib\Source\BasicMathFunctions\arm_shift_q15.c 0x00000000   Number         0  arm_shift_q15.o ABSOLUTE
    ..\..\libraries\CMSIS\DSP_Lib\Source\BasicMathFunctions\arm_shift_q31.c 0x00000000   Number         0  arm_shift_q31.o ABSOLUTE
    ..\..\libraries\CMSIS\DSP_Lib\Source\BasicMathFunctions\arm_shift_q7.c 0x00000000   Number         0  arm_shift_q7.o ABSOLUTE
    ..\..\libraries\CMSIS\DSP_Lib\Source\BasicMathFunctions\arm_sub_f32.c 0x00000000   Number         0  arm_sub_f32.o ABSOLUTE
    ..\..\libraries\CMSIS\DSP_Lib\Source\BasicMathFunctions\arm_sub_q15.c 0x00000000   Number         0  arm_sub_q15.o ABSOLUTE
    ..\..\libraries\CMSIS\DSP_Lib\Source\BasicMathFunctions\arm_sub_q31.c 0x00000000   Number         0  arm_sub_q31.o ABSOLUTE
    ..\..\libraries\CMSIS\DSP_Lib\Source\BasicMathFunctions\arm_sub_q7.c 0x00000000   Number         0  arm_sub_q7.o ABSOLUTE
    ..\..\libraries\CMSIS\DSP_Lib\Source\CommonTables\arm_common_tables.c 0x00000000   Number         0  arm_common_tables.o ABSOLUTE
    ..\..\libraries\CMSIS\DSP_Lib\Source\ComplexMathFunctions\arm_cmplx_conj_f32.c 0x00000000   Number         0  arm_cmplx_conj_f32.o ABSOLUTE
    ..\..\libraries\CMSIS\DSP_Lib\Source\ComplexMathFunctions\arm_cmplx_conj_q15.c 0x00000000   Number         0  arm_cmplx_conj_q15.o ABSOLUTE
    ..\..\libraries\CMSIS\DSP_Lib\Source\ComplexMathFunctions\arm_cmplx_conj_q31.c 0x00000000   Number         0  arm_cmplx_conj_q31.o ABSOLUTE
    ..\..\libraries\CMSIS\DSP_Lib\Source\ComplexMathFunctions\arm_cmplx_dot_prod_f32.c 0x00000000   Number         0  arm_cmplx_dot_prod_f32.o ABSOLUTE
    ..\..\libraries\CMSIS\DSP_Lib\Source\ComplexMathFunctions\arm_cmplx_dot_prod_q15.c 0x00000000   Number         0  arm_cmplx_dot_prod_q15.o ABSOLUTE
    ..\..\libraries\CMSIS\DSP_Lib\Source\ComplexMathFunctions\arm_cmplx_dot_prod_q31.c 0x00000000   Number         0  arm_cmplx_dot_prod_q31.o ABSOLUTE
    ..\..\libraries\CMSIS\DSP_Lib\Source\ComplexMathFunctions\arm_cmplx_mag_f32.c 0x00000000   Number         0  arm_cmplx_mag_f32.o ABSOLUTE
    ..\..\libraries\CMSIS\DSP_Lib\Source\ComplexMathFunctions\arm_cmplx_mag_q15.c 0x00000000   Number         0  arm_cmplx_mag_q15.o ABSOLUTE
    ..\..\libraries\CMSIS\DSP_Lib\Source\ComplexMathFunctions\arm_cmplx_mag_q31.c 0x00000000   Number         0  arm_cmplx_mag_q31.o ABSOLUTE
    ..\..\libraries\CMSIS\DSP_Lib\Source\ComplexMathFunctions\arm_cmplx_mag_squared_f32.c 0x00000000   Number         0  arm_cmplx_mag_squared_f32.o ABSOLUTE
    ..\..\libraries\CMSIS\DSP_Lib\Source\ComplexMathFunctions\arm_cmplx_mag_squared_q15.c 0x00000000   Number         0  arm_cmplx_mag_squared_q15.o ABSOLUTE
    ..\..\libraries\CMSIS\DSP_Lib\Source\ComplexMathFunctions\arm_cmplx_mag_squared_q31.c 0x00000000   Number         0  arm_cmplx_mag_squared_q31.o ABSOLUTE
    ..\..\libraries\CMSIS\DSP_Lib\Source\ComplexMathFunctions\arm_cmplx_mult_cmplx_f32.c 0x00000000   Number         0  arm_cmplx_mult_cmplx_f32.o ABSOLUTE
    ..\..\libraries\CMSIS\DSP_Lib\Source\ComplexMathFunctions\arm_cmplx_mult_cmplx_q15.c 0x00000000   Number         0  arm_cmplx_mult_cmplx_q15.o ABSOLUTE
    ..\..\libraries\CMSIS\DSP_Lib\Source\ComplexMathFunctions\arm_cmplx_mult_cmplx_q31.c 0x00000000   Number         0  arm_cmplx_mult_cmplx_q31.o ABSOLUTE
    ..\..\libraries\CMSIS\DSP_Lib\Source\ComplexMathFunctions\arm_cmplx_mult_real_f32.c 0x00000000   Number         0  arm_cmplx_mult_real_f32.o ABSOLUTE
    ..\..\libraries\CMSIS\DSP_Lib\Source\ComplexMathFunctions\arm_cmplx_mult_real_q15.c 0x00000000   Number         0  arm_cmplx_mult_real_q15.o ABSOLUTE
    ..\..\libraries\CMSIS\DSP_Lib\Source\ComplexMathFunctions\arm_cmplx_mult_real_q31.c 0x00000000   Number         0  arm_cmplx_mult_real_q31.o ABSOLUTE
    ..\..\libraries\CMSIS\DSP_Lib\Source\FastMathFunctions\arm_cos_f32.c 0x00000000   Number         0  arm_cos_f32.o ABSOLUTE
    ..\..\libraries\CMSIS\DSP_Lib\Source\FastMathFunctions\arm_cos_q15.c 0x00000000   Number         0  arm_cos_q15.o ABSOLUTE
    ..\..\libraries\CMSIS\DSP_Lib\Source\FastMathFunctions\arm_cos_q31.c 0x00000000   Number         0  arm_cos_q31.o ABSOLUTE
    ..\..\libraries\CMSIS\DSP_Lib\Source\FastMathFunctions\arm_sin_f32.c 0x00000000   Number         0  arm_sin_f32.o ABSOLUTE
    ..\..\libraries\CMSIS\DSP_Lib\Source\FastMathFunctions\arm_sin_q15.c 0x00000000   Number         0  arm_sin_q15.o ABSOLUTE
    ..\..\libraries\CMSIS\DSP_Lib\Source\FastMathFunctions\arm_sin_q31.c 0x00000000   Number         0  arm_sin_q31.o ABSOLUTE
    ..\..\libraries\CMSIS\DSP_Lib\Source\FastMathFunctions\arm_sqrt_q15.c 0x00000000   Number         0  arm_sqrt_q15.o ABSOLUTE
    ..\..\libraries\CMSIS\DSP_Lib\Source\FastMathFunctions\arm_sqrt_q31.c 0x00000000   Number         0  arm_sqrt_q31.o ABSOLUTE
    ..\..\libraries\CMSIS\DSP_Lib\Source\StatisticsFunctions\arm_max_f32.c 0x00000000   Number         0  arm_max_f32.o ABSOLUTE
    ..\..\libraries\CMSIS\DSP_Lib\Source\StatisticsFunctions\arm_max_q15.c 0x00000000   Number         0  arm_max_q15.o ABSOLUTE
    ..\..\libraries\CMSIS\DSP_Lib\Source\StatisticsFunctions\arm_max_q31.c 0x00000000   Number         0  arm_max_q31.o ABSOLUTE
    ..\..\libraries\CMSIS\DSP_Lib\Source\StatisticsFunctions\arm_max_q7.c 0x00000000   Number         0  arm_max_q7.o ABSOLUTE
    ..\..\libraries\CMSIS\DSP_Lib\Source\StatisticsFunctions\arm_mean_f32.c 0x00000000   Number         0  arm_mean_f32.o ABSOLUTE
    ..\..\libraries\CMSIS\DSP_Lib\Source\StatisticsFunctions\arm_mean_q15.c 0x00000000   Number         0  arm_mean_q15.o ABSOLUTE
    ..\..\libraries\CMSIS\DSP_Lib\Source\StatisticsFunctions\arm_mean_q31.c 0x00000000   Number         0  arm_mean_q31.o ABSOLUTE
    ..\..\libraries\CMSIS\DSP_Lib\Source\StatisticsFunctions\arm_mean_q7.c 0x00000000   Number         0  arm_mean_q7.o ABSOLUTE
    ..\..\libraries\CMSIS\DSP_Lib\Source\StatisticsFunctions\arm_min_f32.c 0x00000000   Number         0  arm_min_f32.o ABSOLUTE
    ..\..\libraries\CMSIS\DSP_Lib\Source\StatisticsFunctions\arm_min_q15.c 0x00000000   Number         0  arm_min_q15.o ABSOLUTE
    ..\..\libraries\CMSIS\DSP_Lib\Source\StatisticsFunctions\arm_min_q31.c 0x00000000   Number         0  arm_min_q31.o ABSOLUTE
    ..\..\libraries\CMSIS\DSP_Lib\Source\StatisticsFunctions\arm_min_q7.c 0x00000000   Number         0  arm_min_q7.o ABSOLUTE
    ..\..\libraries\CMSIS\DSP_Lib\Source\StatisticsFunctions\arm_power_f32.c 0x00000000   Number         0  arm_power_f32.o ABSOLUTE
    ..\..\libraries\CMSIS\DSP_Lib\Source\StatisticsFunctions\arm_power_q15.c 0x00000000   Number         0  arm_power_q15.o ABSOLUTE
    ..\..\libraries\CMSIS\DSP_Lib\Source\StatisticsFunctions\arm_power_q31.c 0x00000000   Number         0  arm_power_q31.o ABSOLUTE
    ..\..\libraries\CMSIS\DSP_Lib\Source\StatisticsFunctions\arm_power_q7.c 0x00000000   Number         0  arm_power_q7.o ABSOLUTE
    ..\..\libraries\CMSIS\DSP_Lib\Source\StatisticsFunctions\arm_rms_f32.c 0x00000000   Number         0  arm_rms_f32.o ABSOLUTE
    ..\..\libraries\CMSIS\DSP_Lib\Source\StatisticsFunctions\arm_rms_q15.c 0x00000000   Number         0  arm_rms_q15.o ABSOLUTE
    ..\..\libraries\CMSIS\DSP_Lib\Source\StatisticsFunctions\arm_rms_q31.c 0x00000000   Number         0  arm_rms_q31.o ABSOLUTE
    ..\..\libraries\CMSIS\DSP_Lib\Source\StatisticsFunctions\arm_std_f32.c 0x00000000   Number         0  arm_std_f32.o ABSOLUTE
    ..\..\libraries\CMSIS\DSP_Lib\Source\StatisticsFunctions\arm_std_q15.c 0x00000000   Number         0  arm_std_q15.o ABSOLUTE
    ..\..\libraries\CMSIS\DSP_Lib\Source\StatisticsFunctions\arm_std_q31.c 0x00000000   Number         0  arm_std_q31.o ABSOLUTE
    ..\..\libraries\CMSIS\DSP_Lib\Source\StatisticsFunctions\arm_var_f32.c 0x00000000   Number         0  arm_var_f32.o ABSOLUTE
    ..\..\libraries\CMSIS\DSP_Lib\Source\StatisticsFunctions\arm_var_q15.c 0x00000000   Number         0  arm_var_q15.o ABSOLUTE
    ..\..\libraries\CMSIS\DSP_Lib\Source\StatisticsFunctions\arm_var_q31.c 0x00000000   Number         0  arm_var_q31.o ABSOLUTE
    ..\..\libraries\CMSIS\DSP_Lib\Source\TransformFunctions\arm_cfft_radix4_f32.c 0x00000000   Number         0  arm_cfft_radix4_f32.o ABSOLUTE
    ..\..\libraries\CMSIS\DSP_Lib\Source\TransformFunctions\arm_cfft_radix4_init_f32.c 0x00000000   Number         0  arm_cfft_radix4_init_f32.o ABSOLUTE
    ..\..\libraries\CMSIS\DSP_Lib\Source\TransformFunctions\arm_cfft_radix4_init_q15.c 0x00000000   Number         0  arm_cfft_radix4_init_q15.o ABSOLUTE
    ..\..\libraries\CMSIS\DSP_Lib\Source\TransformFunctions\arm_cfft_radix4_init_q31.c 0x00000000   Number         0  arm_cfft_radix4_init_q31.o ABSOLUTE
    ..\..\libraries\CMSIS\DSP_Lib\Source\TransformFunctions\arm_cfft_radix4_q15.c 0x00000000   Number         0  arm_cfft_radix4_q15.o ABSOLUTE
    ..\..\libraries\CMSIS\DSP_Lib\Source\TransformFunctions\arm_cfft_radix4_q31.c 0x00000000   Number         0  arm_cfft_radix4_q31.o ABSOLUTE
    ..\..\libraries\CMSIS\DSP_Lib\Source\TransformFunctions\arm_dct4_f32.c 0x00000000   Number         0  arm_dct4_f32.o ABSOLUTE
    ..\..\libraries\CMSIS\DSP_Lib\Source\TransformFunctions\arm_dct4_init_f32.c 0x00000000   Number         0  arm_dct4_init_f32.o ABSOLUTE
    ..\..\libraries\CMSIS\DSP_Lib\Source\TransformFunctions\arm_dct4_init_q15.c 0x00000000   Number         0  arm_dct4_init_q15.o ABSOLUTE
    ..\..\libraries\CMSIS\DSP_Lib\Source\TransformFunctions\arm_dct4_init_q31.c 0x00000000   Number         0  arm_dct4_init_q31.o ABSOLUTE
    ..\..\libraries\CMSIS\DSP_Lib\Source\TransformFunctions\arm_dct4_q15.c 0x00000000   Number         0  arm_dct4_q15.o ABSOLUTE
    ..\..\libraries\CMSIS\DSP_Lib\Source\TransformFunctions\arm_dct4_q31.c 0x00000000   Number         0  arm_dct4_q31.o ABSOLUTE
    ..\..\libraries\CMSIS\DSP_Lib\Source\TransformFunctions\arm_rfft_f32.c 0x00000000   Number         0  arm_rfft_f32.o ABSOLUTE
    ..\..\libraries\CMSIS\DSP_Lib\Source\TransformFunctions\arm_rfft_init_f32.c 0x00000000   Number         0  arm_rfft_init_f32.o ABSOLUTE
    ..\..\libraries\CMSIS\DSP_Lib\Source\TransformFunctions\arm_rfft_init_q15.c 0x00000000   Number         0  arm_rfft_init_q15.o ABSOLUTE
    ..\..\libraries\CMSIS\DSP_Lib\Source\TransformFunctions\arm_rfft_init_q31.c 0x00000000   Number         0  arm_rfft_init_q31.o ABSOLUTE
    ..\..\libraries\CMSIS\DSP_Lib\Source\TransformFunctions\arm_rfft_q15.c 0x00000000   Number         0  arm_rfft_q15.o ABSOLUTE
    ..\..\libraries\CMSIS\DSP_Lib\Source\TransformFunctions\arm_rfft_q31.c 0x00000000   Number         0  arm_rfft_q31.o ABSOLUTE
    ..\..\libraries\RTX-v4.73\SRC\ARM\HAL_CM4.c 0x00000000   Number         0  hal_cm4.o ABSOLUTE
    ..\..\libraries\RTX-v4.73\SRC\ARM\SVC_Table.s 0x00000000   Number         0  svc_table.o ABSOLUTE
    ..\..\libraries\RTX-v4.73\SRC\HAL_CM.c   0x00000000   Number         0  hal_cm.o ABSOLUTE
    ..\..\libraries\RTX-v4.73\SRC\rt_CMSIS.c 0x00000000   Number         0  rt_cmsis.o ABSOLUTE
    ..\..\libraries\RTX-v4.73\SRC\rt_Event.c 0x00000000   Number         0  rt_event.o ABSOLUTE
    ..\..\libraries\RTX-v4.73\SRC\rt_List.c  0x00000000   Number         0  rt_list.o ABSOLUTE
    ..\..\libraries\RTX-v4.73\SRC\rt_Mailbox.c 0x00000000   Number         0  rt_mailbox.o ABSOLUTE
    ..\..\libraries\RTX-v4.73\SRC\rt_MemBox.c 0x00000000   Number         0  rt_membox.o ABSOLUTE
    ..\..\libraries\RTX-v4.73\SRC\rt_Memory.c 0x00000000   Number         0  rt_memory.o ABSOLUTE
    ..\..\libraries\RTX-v4.73\SRC\rt_Mutex.c 0x00000000   Number         0  rt_mutex.o ABSOLUTE
    ..\..\libraries\RTX-v4.73\SRC\rt_Robin.c 0x00000000   Number         0  rt_robin.o ABSOLUTE
    ..\..\libraries\RTX-v4.73\SRC\rt_Semaphore.c 0x00000000   Number         0  rt_semaphore.o ABSOLUTE
    ..\..\libraries\RTX-v4.73\SRC\rt_System.c 0x00000000   Number         0  rt_system.o ABSOLUTE
    ..\..\libraries\RTX-v4.73\SRC\rt_Task.c  0x00000000   Number         0  rt_task.o ABSOLUTE
    ..\..\libraries\RTX-v4.73\SRC\rt_Time.c  0x00000000   Number         0  rt_time.o ABSOLUTE
    ..\..\libraries\STM32F4-Discovery\stm32f4_discovery.c 0x00000000   Number         0  stm32f4_discovery.o ABSOLUTE
    ..\..\libraries\STM32F4-Discovery\stm32f4_discovery_lcd.c 0x00000000   Number         0  stm32f4_discovery_lcd.o ABSOLUTE
    ..\..\libraries\STM32F4x7_ETH_Driver\src\stm32f4x7_eth.c 0x00000000   Number         0  stm32f4x7_eth.o ABSOLUTE
    ..\..\libraries\STM32F4xx_StdPeriph_Driver\src\misc.c 0x00000000   Number         0  misc.o ABSOLUTE
    ..\..\libraries\STM32F4xx_StdPeriph_Driver\src\stm32f4xx_adc.c 0x00000000   Number         0  stm32f4xx_adc.o ABSOLUTE
    ..\..\libraries\STM32F4xx_StdPeriph_Driver\src\stm32f4xx_dma.c 0x00000000   Number         0  stm32f4xx_dma.o ABSOLUTE
    ..\..\libraries\STM32F4xx_StdPeriph_Driver\src\stm32f4xx_exti.c 0x00000000   Number         0  stm32f4xx_exti.o ABSOLUTE
    ..\..\libraries\STM32F4xx_StdPeriph_Driver\src\stm32f4xx_fsmc.c 0x00000000   Number         0  stm32f4xx_fsmc.o ABSOLUTE
    ..\..\libraries\STM32F4xx_StdPeriph_Driver\src\stm32f4xx_gpio.c 0x00000000   Number         0  stm32f4xx_gpio.o ABSOLUTE
    ..\..\libraries\STM32F4xx_StdPeriph_Driver\src\stm32f4xx_rcc.c 0x00000000   Number         0  stm32f4xx_rcc.o ABSOLUTE
    ..\..\libraries\STM32F4xx_StdPeriph_Driver\src\stm32f4xx_sdio.c 0x00000000   Number         0  stm32f4xx_sdio.o ABSOLUTE
    ..\..\libraries\STM32F4xx_StdPeriph_Driver\src\stm32f4xx_spi.c 0x00000000   Number         0  stm32f4xx_spi.o ABSOLUTE
    ..\..\libraries\STM32F4xx_StdPeriph_Driver\src\stm32f4xx_syscfg.c 0x00000000   Number         0  stm32f4xx_syscfg.o ABSOLUTE
    ..\..\libraries\STM32F4xx_StdPeriph_Driver\src\stm32f4xx_tim.c 0x00000000   Number         0  stm32f4xx_tim.o ABSOLUTE
    ..\..\libraries\STM32F4xx_StdPeriph_Driver\src\stm32f4xx_usart.c 0x00000000   Number         0  stm32f4xx_usart.o ABSOLUTE
    ..\..\libraries\lwip-1.4.1\port\STM32F4x7\arch\ethernetif.c 0x00000000   Number         0  ethernetif.o ABSOLUTE
    ..\..\libraries\lwip-1.4.1\port\STM32F4x7\arch\sys_arch.c 0x00000000   Number         0  sys_arch.o ABSOLUTE
    ..\..\libraries\lwip-1.4.1\src\core\def.c 0x00000000   Number         0  def.o ABSOLUTE
    ..\..\libraries\lwip-1.4.1\src\core\mem.c 0x00000000   Number         0  mem.o ABSOLUTE
    ..\..\libraries\lwip-1.4.1\src\core\memp.c 0x00000000   Number         0  memp.o ABSOLUTE
    ..\..\libraries\lwip-1.4.1\src\core\pbuf.c 0x00000000   Number         0  pbuf.o ABSOLUTE
    ..\..\libraries\ptpd-2.0.0\src\arith.c   0x00000000   Number         0  arith.o ABSOLUTE
    ..\..\libraries\ptpd-2.0.0\src\bmc.c     0x00000000   Number         0  bmc.o ABSOLUTE
    ..\..\libraries\ptpd-2.0.0\src\dep\msg.c 0x00000000   Number         0  msg.o ABSOLUTE
    ..\..\libraries\ptpd-2.0.0\src\dep\net.c 0x00000000   Number         0  net.o ABSOLUTE
    ..\..\libraries\ptpd-2.0.0\src\dep\servo.c 0x00000000   Number         0  servo.o ABSOLUTE
    ..\..\libraries\ptpd-2.0.0\src\dep\startup.c 0x00000000   Number         0  startup.o ABSOLUTE
    ..\..\libraries\ptpd-2.0.0\src\dep\sys_time.c 0x00000000   Number         0  sys_time.o ABSOLUTE
    ..\..\libraries\ptpd-2.0.0\src\dep\timer.c 0x00000000   Number         0  timer.o ABSOLUTE
    ..\..\libraries\ptpd-2.0.0\src\protocol.c 0x00000000   Number         0  protocol.o ABSOLUTE
    ..\..\libraries\ptpd-2.0.0\src\ptpd.c    0x00000000   Number         0  ptpd.o ABSOLUTE
    ..\..\libraries\time_msg\time_msg.c      0x00000000   Number         0  time_msg.o ABSOLUTE
    ..\\..\\libraries\\CANFD\\app\\app.c     0x00000000   Number         0  app.o ABSOLUTE
    ..\\..\\libraries\\CANFD\\canfdspi\\drv_canfdspi_api.c 0x00000000   Number         0  drv_canfdspi_api.o ABSOLUTE
    ..\\..\\libraries\\CANFD\\spi\\drv_spi.c 0x00000000   Number         0  drv_spi.o ABSOLUTE
    ..\\..\\libraries\\CMSIS\\DSP_Lib\\Source\\BasicMathFunctions\\arm_abs_f32.c 0x00000000   Number         0  arm_abs_f32.o ABSOLUTE
    ..\\..\\libraries\\CMSIS\\DSP_Lib\\Source\\BasicMathFunctions\\arm_abs_q15.c 0x00000000   Number         0  arm_abs_q15.o ABSOLUTE
    ..\\..\\libraries\\CMSIS\\DSP_Lib\\Source\\BasicMathFunctions\\arm_abs_q31.c 0x00000000   Number         0  arm_abs_q31.o ABSOLUTE
    ..\\..\\libraries\\CMSIS\\DSP_Lib\\Source\\BasicMathFunctions\\arm_abs_q7.c 0x00000000   Number         0  arm_abs_q7.o ABSOLUTE
    ..\\..\\libraries\\CMSIS\\DSP_Lib\\Source\\BasicMathFunctions\\arm_add_f32.c 0x00000000   Number         0  arm_add_f32.o ABSOLUTE
    ..\\..\\libraries\\CMSIS\\DSP_Lib\\Source\\BasicMathFunctions\\arm_add_q15.c 0x00000000   Number         0  arm_add_q15.o ABSOLUTE
    ..\\..\\libraries\\CMSIS\\DSP_Lib\\Source\\BasicMathFunctions\\arm_add_q31.c 0x00000000   Number         0  arm_add_q31.o ABSOLUTE
    ..\\..\\libraries\\CMSIS\\DSP_Lib\\Source\\BasicMathFunctions\\arm_add_q7.c 0x00000000   Number         0  arm_add_q7.o ABSOLUTE
    ..\\..\\libraries\\CMSIS\\DSP_Lib\\Source\\BasicMathFunctions\\arm_dot_prod_f32.c 0x00000000   Number         0  arm_dot_prod_f32.o ABSOLUTE
    ..\\..\\libraries\\CMSIS\\DSP_Lib\\Source\\BasicMathFunctions\\arm_dot_prod_q15.c 0x00000000   Number         0  arm_dot_prod_q15.o ABSOLUTE
    ..\\..\\libraries\\CMSIS\\DSP_Lib\\Source\\BasicMathFunctions\\arm_dot_prod_q31.c 0x00000000   Number         0  arm_dot_prod_q31.o ABSOLUTE
    ..\\..\\libraries\\CMSIS\\DSP_Lib\\Source\\BasicMathFunctions\\arm_dot_prod_q7.c 0x00000000   Number         0  arm_dot_prod_q7.o ABSOLUTE
    ..\\..\\libraries\\CMSIS\\DSP_Lib\\Source\\BasicMathFunctions\\arm_mult_f32.c 0x00000000   Number         0  arm_mult_f32.o ABSOLUTE
    ..\\..\\libraries\\CMSIS\\DSP_Lib\\Source\\BasicMathFunctions\\arm_mult_q15.c 0x00000000   Number         0  arm_mult_q15.o ABSOLUTE
    ..\\..\\libraries\\CMSIS\\DSP_Lib\\Source\\BasicMathFunctions\\arm_mult_q31.c 0x00000000   Number         0  arm_mult_q31.o ABSOLUTE
    ..\\..\\libraries\\CMSIS\\DSP_Lib\\Source\\BasicMathFunctions\\arm_mult_q7.c 0x00000000   Number         0  arm_mult_q7.o ABSOLUTE
    ..\\..\\libraries\\CMSIS\\DSP_Lib\\Source\\BasicMathFunctions\\arm_negate_f32.c 0x00000000   Number         0  arm_negate_f32.o ABSOLUTE
    ..\\..\\libraries\\CMSIS\\DSP_Lib\\Source\\BasicMathFunctions\\arm_negate_q15.c 0x00000000   Number         0  arm_negate_q15.o ABSOLUTE
    ..\\..\\libraries\\CMSIS\\DSP_Lib\\Source\\BasicMathFunctions\\arm_negate_q31.c 0x00000000   Number         0  arm_negate_q31.o ABSOLUTE
    ..\\..\\libraries\\CMSIS\\DSP_Lib\\Source\\BasicMathFunctions\\arm_negate_q7.c 0x00000000   Number         0  arm_negate_q7.o ABSOLUTE
    ..\\..\\libraries\\CMSIS\\DSP_Lib\\Source\\BasicMathFunctions\\arm_offset_f32.c 0x00000000   Number         0  arm_offset_f32.o ABSOLUTE
    ..\\..\\libraries\\CMSIS\\DSP_Lib\\Source\\BasicMathFunctions\\arm_offset_q15.c 0x00000000   Number         0  arm_offset_q15.o ABSOLUTE
    ..\\..\\libraries\\CMSIS\\DSP_Lib\\Source\\BasicMathFunctions\\arm_offset_q31.c 0x00000000   Number         0  arm_offset_q31.o ABSOLUTE
    ..\\..\\libraries\\CMSIS\\DSP_Lib\\Source\\BasicMathFunctions\\arm_offset_q7.c 0x00000000   Number         0  arm_offset_q7.o ABSOLUTE
    ..\\..\\libraries\\CMSIS\\DSP_Lib\\Source\\BasicMathFunctions\\arm_scale_f32.c 0x00000000   Number         0  arm_scale_f32.o ABSOLUTE
    ..\\..\\libraries\\CMSIS\\DSP_Lib\\Source\\BasicMathFunctions\\arm_scale_q15.c 0x00000000   Number         0  arm_scale_q15.o ABSOLUTE
    ..\\..\\libraries\\CMSIS\\DSP_Lib\\Source\\BasicMathFunctions\\arm_scale_q31.c 0x00000000   Number         0  arm_scale_q31.o ABSOLUTE
    ..\\..\\libraries\\CMSIS\\DSP_Lib\\Source\\BasicMathFunctions\\arm_scale_q7.c 0x00000000   Number         0  arm_scale_q7.o ABSOLUTE
    ..\\..\\libraries\\CMSIS\\DSP_Lib\\Source\\BasicMathFunctions\\arm_shift_q15.c 0x00000000   Number         0  arm_shift_q15.o ABSOLUTE
    ..\\..\\libraries\\CMSIS\\DSP_Lib\\Source\\BasicMathFunctions\\arm_shift_q31.c 0x00000000   Number         0  arm_shift_q31.o ABSOLUTE
    ..\\..\\libraries\\CMSIS\\DSP_Lib\\Source\\BasicMathFunctions\\arm_shift_q7.c 0x00000000   Number         0  arm_shift_q7.o ABSOLUTE
    ..\\..\\libraries\\CMSIS\\DSP_Lib\\Source\\BasicMathFunctions\\arm_sub_f32.c 0x00000000   Number         0  arm_sub_f32.o ABSOLUTE
    ..\\..\\libraries\\CMSIS\\DSP_Lib\\Source\\BasicMathFunctions\\arm_sub_q15.c 0x00000000   Number         0  arm_sub_q15.o ABSOLUTE
    ..\\..\\libraries\\CMSIS\\DSP_Lib\\Source\\BasicMathFunctions\\arm_sub_q31.c 0x00000000   Number         0  arm_sub_q31.o ABSOLUTE
    ..\\..\\libraries\\CMSIS\\DSP_Lib\\Source\\BasicMathFunctions\\arm_sub_q7.c 0x00000000   Number         0  arm_sub_q7.o ABSOLUTE
    ..\\..\\libraries\\CMSIS\\DSP_Lib\\Source\\CommonTables\\arm_common_tables.c 0x00000000   Number         0  arm_common_tables.o ABSOLUTE
    ..\\..\\libraries\\CMSIS\\DSP_Lib\\Source\\ComplexMathFunctions\\arm_cmplx_conj_f32.c 0x00000000   Number         0  arm_cmplx_conj_f32.o ABSOLUTE
    ..\\..\\libraries\\CMSIS\\DSP_Lib\\Source\\ComplexMathFunctions\\arm_cmplx_conj_q15.c 0x00000000   Number         0  arm_cmplx_conj_q15.o ABSOLUTE
    ..\\..\\libraries\\CMSIS\\DSP_Lib\\Source\\ComplexMathFunctions\\arm_cmplx_conj_q31.c 0x00000000   Number         0  arm_cmplx_conj_q31.o ABSOLUTE
    ..\\..\\libraries\\CMSIS\\DSP_Lib\\Source\\ComplexMathFunctions\\arm_cmplx_dot_prod_f32.c 0x00000000   Number         0  arm_cmplx_dot_prod_f32.o ABSOLUTE
    ..\\..\\libraries\\CMSIS\\DSP_Lib\\Source\\ComplexMathFunctions\\arm_cmplx_dot_prod_q15.c 0x00000000   Number         0  arm_cmplx_dot_prod_q15.o ABSOLUTE
    ..\\..\\libraries\\CMSIS\\DSP_Lib\\Source\\ComplexMathFunctions\\arm_cmplx_dot_prod_q31.c 0x00000000   Number         0  arm_cmplx_dot_prod_q31.o ABSOLUTE
    ..\\..\\libraries\\CMSIS\\DSP_Lib\\Source\\ComplexMathFunctions\\arm_cmplx_mag_f32.c 0x00000000   Number         0  arm_cmplx_mag_f32.o ABSOLUTE
    ..\\..\\libraries\\CMSIS\\DSP_Lib\\Source\\ComplexMathFunctions\\arm_cmplx_mag_q15.c 0x00000000   Number         0  arm_cmplx_mag_q15.o ABSOLUTE
    ..\\..\\libraries\\CMSIS\\DSP_Lib\\Source\\ComplexMathFunctions\\arm_cmplx_mag_q31.c 0x00000000   Number         0  arm_cmplx_mag_q31.o ABSOLUTE
    ..\\..\\libraries\\CMSIS\\DSP_Lib\\Source\\ComplexMathFunctions\\arm_cmplx_mag_squared_f32.c 0x00000000   Number         0  arm_cmplx_mag_squared_f32.o ABSOLUTE
    ..\\..\\libraries\\CMSIS\\DSP_Lib\\Source\\ComplexMathFunctions\\arm_cmplx_mag_squared_q15.c 0x00000000   Number         0  arm_cmplx_mag_squared_q15.o ABSOLUTE
    ..\\..\\libraries\\CMSIS\\DSP_Lib\\Source\\ComplexMathFunctions\\arm_cmplx_mag_squared_q31.c 0x00000000   Number         0  arm_cmplx_mag_squared_q31.o ABSOLUTE
    ..\\..\\libraries\\CMSIS\\DSP_Lib\\Source\\ComplexMathFunctions\\arm_cmplx_mult_cmplx_f32.c 0x00000000   Number         0  arm_cmplx_mult_cmplx_f32.o ABSOLUTE
    ..\\..\\libraries\\CMSIS\\DSP_Lib\\Source\\ComplexMathFunctions\\arm_cmplx_mult_cmplx_q15.c 0x00000000   Number         0  arm_cmplx_mult_cmplx_q15.o ABSOLUTE
    ..\\..\\libraries\\CMSIS\\DSP_Lib\\Source\\ComplexMathFunctions\\arm_cmplx_mult_cmplx_q31.c 0x00000000   Number         0  arm_cmplx_mult_cmplx_q31.o ABSOLUTE
    ..\\..\\libraries\\CMSIS\\DSP_Lib\\Source\\ComplexMathFunctions\\arm_cmplx_mult_real_f32.c 0x00000000   Number         0  arm_cmplx_mult_real_f32.o ABSOLUTE
    ..\\..\\libraries\\CMSIS\\DSP_Lib\\Source\\ComplexMathFunctions\\arm_cmplx_mult_real_q15.c 0x00000000   Number         0  arm_cmplx_mult_real_q15.o ABSOLUTE
    ..\\..\\libraries\\CMSIS\\DSP_Lib\\Source\\ComplexMathFunctions\\arm_cmplx_mult_real_q31.c 0x00000000   Number         0  arm_cmplx_mult_real_q31.o ABSOLUTE
    ..\\..\\libraries\\CMSIS\\DSP_Lib\\Source\\FastMathFunctions\\arm_cos_f32.c 0x00000000   Number         0  arm_cos_f32.o ABSOLUTE
    ..\\..\\libraries\\CMSIS\\DSP_Lib\\Source\\FastMathFunctions\\arm_cos_q15.c 0x00000000   Number         0  arm_cos_q15.o ABSOLUTE
    ..\\..\\libraries\\CMSIS\\DSP_Lib\\Source\\FastMathFunctions\\arm_cos_q31.c 0x00000000   Number         0  arm_cos_q31.o ABSOLUTE
    ..\\..\\libraries\\CMSIS\\DSP_Lib\\Source\\FastMathFunctions\\arm_sin_f32.c 0x00000000   Number         0  arm_sin_f32.o ABSOLUTE
    ..\\..\\libraries\\CMSIS\\DSP_Lib\\Source\\FastMathFunctions\\arm_sin_q15.c 0x00000000   Number         0  arm_sin_q15.o ABSOLUTE
    ..\\..\\libraries\\CMSIS\\DSP_Lib\\Source\\FastMathFunctions\\arm_sin_q31.c 0x00000000   Number         0  arm_sin_q31.o ABSOLUTE
    ..\\..\\libraries\\CMSIS\\DSP_Lib\\Source\\FastMathFunctions\\arm_sqrt_q15.c 0x00000000   Number         0  arm_sqrt_q15.o ABSOLUTE
    ..\\..\\libraries\\CMSIS\\DSP_Lib\\Source\\FastMathFunctions\\arm_sqrt_q31.c 0x00000000   Number         0  arm_sqrt_q31.o ABSOLUTE
    ..\\..\\libraries\\CMSIS\\DSP_Lib\\Source\\StatisticsFunctions\\arm_max_f32.c 0x00000000   Number         0  arm_max_f32.o ABSOLUTE
    ..\\..\\libraries\\CMSIS\\DSP_Lib\\Source\\StatisticsFunctions\\arm_max_q15.c 0x00000000   Number         0  arm_max_q15.o ABSOLUTE
    ..\\..\\libraries\\CMSIS\\DSP_Lib\\Source\\StatisticsFunctions\\arm_max_q31.c 0x00000000   Number         0  arm_max_q31.o ABSOLUTE
    ..\\..\\libraries\\CMSIS\\DSP_Lib\\Source\\StatisticsFunctions\\arm_max_q7.c 0x00000000   Number         0  arm_max_q7.o ABSOLUTE
    ..\\..\\libraries\\CMSIS\\DSP_Lib\\Source\\StatisticsFunctions\\arm_mean_f32.c 0x00000000   Number         0  arm_mean_f32.o ABSOLUTE
    ..\\..\\libraries\\CMSIS\\DSP_Lib\\Source\\StatisticsFunctions\\arm_mean_q15.c 0x00000000   Number         0  arm_mean_q15.o ABSOLUTE
    ..\\..\\libraries\\CMSIS\\DSP_Lib\\Source\\StatisticsFunctions\\arm_mean_q31.c 0x00000000   Number         0  arm_mean_q31.o ABSOLUTE
    ..\\..\\libraries\\CMSIS\\DSP_Lib\\Source\\StatisticsFunctions\\arm_mean_q7.c 0x00000000   Number         0  arm_mean_q7.o ABSOLUTE
    ..\\..\\libraries\\CMSIS\\DSP_Lib\\Source\\StatisticsFunctions\\arm_min_f32.c 0x00000000   Number         0  arm_min_f32.o ABSOLUTE
    ..\\..\\libraries\\CMSIS\\DSP_Lib\\Source\\StatisticsFunctions\\arm_min_q15.c 0x00000000   Number         0  arm_min_q15.o ABSOLUTE
    ..\\..\\libraries\\CMSIS\\DSP_Lib\\Source\\StatisticsFunctions\\arm_min_q31.c 0x00000000   Number         0  arm_min_q31.o ABSOLUTE
    ..\\..\\libraries\\CMSIS\\DSP_Lib\\Source\\StatisticsFunctions\\arm_min_q7.c 0x00000000   Number         0  arm_min_q7.o ABSOLUTE
    ..\\..\\libraries\\CMSIS\\DSP_Lib\\Source\\StatisticsFunctions\\arm_power_f32.c 0x00000000   Number         0  arm_power_f32.o ABSOLUTE
    ..\\..\\libraries\\CMSIS\\DSP_Lib\\Source\\StatisticsFunctions\\arm_power_q15.c 0x00000000   Number         0  arm_power_q15.o ABSOLUTE
    ..\\..\\libraries\\CMSIS\\DSP_Lib\\Source\\StatisticsFunctions\\arm_power_q31.c 0x00000000   Number         0  arm_power_q31.o ABSOLUTE
    ..\\..\\libraries\\CMSIS\\DSP_Lib\\Source\\StatisticsFunctions\\arm_power_q7.c 0x00000000   Number         0  arm_power_q7.o ABSOLUTE
    ..\\..\\libraries\\CMSIS\\DSP_Lib\\Source\\StatisticsFunctions\\arm_rms_f32.c 0x00000000   Number         0  arm_rms_f32.o ABSOLUTE
    ..\\..\\libraries\\CMSIS\\DSP_Lib\\Source\\StatisticsFunctions\\arm_rms_q15.c 0x00000000   Number         0  arm_rms_q15.o ABSOLUTE
    ..\\..\\libraries\\CMSIS\\DSP_Lib\\Source\\StatisticsFunctions\\arm_rms_q31.c 0x00000000   Number         0  arm_rms_q31.o ABSOLUTE
    ..\\..\\libraries\\CMSIS\\DSP_Lib\\Source\\StatisticsFunctions\\arm_std_f32.c 0x00000000   Number         0  arm_std_f32.o ABSOLUTE
    ..\\..\\libraries\\CMSIS\\DSP_Lib\\Source\\StatisticsFunctions\\arm_std_q15.c 0x00000000   Number         0  arm_std_q15.o ABSOLUTE
    ..\\..\\libraries\\CMSIS\\DSP_Lib\\Source\\StatisticsFunctions\\arm_std_q31.c 0x00000000   Number         0  arm_std_q31.o ABSOLUTE
    ..\\..\\libraries\\CMSIS\\DSP_Lib\\Source\\StatisticsFunctions\\arm_var_f32.c 0x00000000   Number         0  arm_var_f32.o ABSOLUTE
    ..\\..\\libraries\\CMSIS\\DSP_Lib\\Source\\StatisticsFunctions\\arm_var_q15.c 0x00000000   Number         0  arm_var_q15.o ABSOLUTE
    ..\\..\\libraries\\CMSIS\\DSP_Lib\\Source\\StatisticsFunctions\\arm_var_q31.c 0x00000000   Number         0  arm_var_q31.o ABSOLUTE
    ..\\..\\libraries\\CMSIS\\DSP_Lib\\Source\\TransformFunctions\\arm_cfft_radix4_f32.c 0x00000000   Number         0  arm_cfft_radix4_f32.o ABSOLUTE
    ..\\..\\libraries\\CMSIS\\DSP_Lib\\Source\\TransformFunctions\\arm_cfft_radix4_init_f32.c 0x00000000   Number         0  arm_cfft_radix4_init_f32.o ABSOLUTE
    ..\\..\\libraries\\CMSIS\\DSP_Lib\\Source\\TransformFunctions\\arm_cfft_radix4_init_q15.c 0x00000000   Number         0  arm_cfft_radix4_init_q15.o ABSOLUTE
    ..\\..\\libraries\\CMSIS\\DSP_Lib\\Source\\TransformFunctions\\arm_cfft_radix4_init_q31.c 0x00000000   Number         0  arm_cfft_radix4_init_q31.o ABSOLUTE
    ..\\..\\libraries\\CMSIS\\DSP_Lib\\Source\\TransformFunctions\\arm_cfft_radix4_q15.c 0x00000000   Number         0  arm_cfft_radix4_q15.o ABSOLUTE
    ..\\..\\libraries\\CMSIS\\DSP_Lib\\Source\\TransformFunctions\\arm_cfft_radix4_q31.c 0x00000000   Number         0  arm_cfft_radix4_q31.o ABSOLUTE
    ..\\..\\libraries\\CMSIS\\DSP_Lib\\Source\\TransformFunctions\\arm_dct4_f32.c 0x00000000   Number         0  arm_dct4_f32.o ABSOLUTE
    ..\\..\\libraries\\CMSIS\\DSP_Lib\\Source\\TransformFunctions\\arm_dct4_init_f32.c 0x00000000   Number         0  arm_dct4_init_f32.o ABSOLUTE
    ..\\..\\libraries\\CMSIS\\DSP_Lib\\Source\\TransformFunctions\\arm_dct4_init_q15.c 0x00000000   Number         0  arm_dct4_init_q15.o ABSOLUTE
    ..\\..\\libraries\\CMSIS\\DSP_Lib\\Source\\TransformFunctions\\arm_dct4_init_q31.c 0x00000000   Number         0  arm_dct4_init_q31.o ABSOLUTE
    ..\\..\\libraries\\CMSIS\\DSP_Lib\\Source\\TransformFunctions\\arm_dct4_q15.c 0x00000000   Number         0  arm_dct4_q15.o ABSOLUTE
    ..\\..\\libraries\\CMSIS\\DSP_Lib\\Source\\TransformFunctions\\arm_dct4_q31.c 0x00000000   Number         0  arm_dct4_q31.o ABSOLUTE
    ..\\..\\libraries\\CMSIS\\DSP_Lib\\Source\\TransformFunctions\\arm_rfft_f32.c 0x00000000   Number         0  arm_rfft_f32.o ABSOLUTE
    ..\\..\\libraries\\CMSIS\\DSP_Lib\\Source\\TransformFunctions\\arm_rfft_init_f32.c 0x00000000   Number         0  arm_rfft_init_f32.o ABSOLUTE
    ..\\..\\libraries\\CMSIS\\DSP_Lib\\Source\\TransformFunctions\\arm_rfft_init_q15.c 0x00000000   Number         0  arm_rfft_init_q15.o ABSOLUTE
    ..\\..\\libraries\\CMSIS\\DSP_Lib\\Source\\TransformFunctions\\arm_rfft_init_q31.c 0x00000000   Number         0  arm_rfft_init_q31.o ABSOLUTE
    ..\\..\\libraries\\CMSIS\\DSP_Lib\\Source\\TransformFunctions\\arm_rfft_q15.c 0x00000000   Number         0  arm_rfft_q15.o ABSOLUTE
    ..\\..\\libraries\\CMSIS\\DSP_Lib\\Source\\TransformFunctions\\arm_rfft_q31.c 0x00000000   Number         0  arm_rfft_q31.o ABSOLUTE
    ..\\..\\libraries\\RTX-v4.73\\SRC\\ARM\\HAL_CM4.c 0x00000000   Number         0  hal_cm4.o ABSOLUTE
    ..\\..\\libraries\\RTX-v4.73\\SRC\\rt_CMSIS.c 0x00000000   Number         0  rt_cmsis.o ABSOLUTE
    ..\\..\\libraries\\RTX-v4.73\\SRC\\rt_System.c 0x00000000   Number         0  rt_system.o ABSOLUTE
    ..\\..\\libraries\\STM32F4-Discovery\\stm32f4_discovery.c 0x00000000   Number         0  stm32f4_discovery.o ABSOLUTE
    ..\\..\\libraries\\STM32F4-Discovery\\stm32f4_discovery_lcd.c 0x00000000   Number         0  stm32f4_discovery_lcd.o ABSOLUTE
    ..\\..\\libraries\\STM32F4x7_ETH_Driver\\src\\stm32f4x7_eth.c 0x00000000   Number         0  stm32f4x7_eth.o ABSOLUTE
    ..\\..\\libraries\\STM32F4xx_StdPeriph_Driver\\src\\misc.c 0x00000000   Number         0  misc.o ABSOLUTE
    ..\\..\\libraries\\STM32F4xx_StdPeriph_Driver\\src\\stm32f4xx_adc.c 0x00000000   Number         0  stm32f4xx_adc.o ABSOLUTE
    ..\\..\\libraries\\STM32F4xx_StdPeriph_Driver\\src\\stm32f4xx_dma.c 0x00000000   Number         0  stm32f4xx_dma.o ABSOLUTE
    ..\\..\\libraries\\STM32F4xx_StdPeriph_Driver\\src\\stm32f4xx_exti.c 0x00000000   Number         0  stm32f4xx_exti.o ABSOLUTE
    ..\\..\\libraries\\STM32F4xx_StdPeriph_Driver\\src\\stm32f4xx_fsmc.c 0x00000000   Number         0  stm32f4xx_fsmc.o ABSOLUTE
    ..\\..\\libraries\\STM32F4xx_StdPeriph_Driver\\src\\stm32f4xx_gpio.c 0x00000000   Number         0  stm32f4xx_gpio.o ABSOLUTE
    ..\\..\\libraries\\STM32F4xx_StdPeriph_Driver\\src\\stm32f4xx_rcc.c 0x00000000   Number         0  stm32f4xx_rcc.o ABSOLUTE
    ..\\..\\libraries\\STM32F4xx_StdPeriph_Driver\\src\\stm32f4xx_sdio.c 0x00000000   Number         0  stm32f4xx_sdio.o ABSOLUTE
    ..\\..\\libraries\\STM32F4xx_StdPeriph_Driver\\src\\stm32f4xx_spi.c 0x00000000   Number         0  stm32f4xx_spi.o ABSOLUTE
    ..\\..\\libraries\\STM32F4xx_StdPeriph_Driver\\src\\stm32f4xx_syscfg.c 0x00000000   Number         0  stm32f4xx_syscfg.o ABSOLUTE
    ..\\..\\libraries\\STM32F4xx_StdPeriph_Driver\\src\\stm32f4xx_tim.c 0x00000000   Number         0  stm32f4xx_tim.o ABSOLUTE
    ..\\..\\libraries\\STM32F4xx_StdPeriph_Driver\\src\\stm32f4xx_usart.c 0x00000000   Number         0  stm32f4xx_usart.o ABSOLUTE
    ..\\..\\libraries\\lwip-1.4.1\\port\\STM32F4x7\\arch\\ethernetif.c 0x00000000   Number         0  ethernetif.o ABSOLUTE
    ..\\..\\libraries\\lwip-1.4.1\\port\\STM32F4x7\\arch\\sys_arch.c 0x00000000   Number         0  sys_arch.o ABSOLUTE
    ..\\..\\libraries\\ptpd-2.0.0\\src\\arith.c 0x00000000   Number         0  arith.o ABSOLUTE
    ..\\..\\libraries\\ptpd-2.0.0\\src\\bmc.c 0x00000000   Number         0  bmc.o ABSOLUTE
    ..\\..\\libraries\\ptpd-2.0.0\\src\\dep\\msg.c 0x00000000   Number         0  msg.o ABSOLUTE
    ..\\..\\libraries\\ptpd-2.0.0\\src\\dep\\net.c 0x00000000   Number         0  net.o ABSOLUTE
    ..\\..\\libraries\\ptpd-2.0.0\\src\\dep\\servo.c 0x00000000   Number         0  servo.o ABSOLUTE
    ..\\..\\libraries\\ptpd-2.0.0\\src\\dep\\startup.c 0x00000000   Number         0  startup.o ABSOLUTE
    ..\\..\\libraries\\ptpd-2.0.0\\src\\dep\\sys_time.c 0x00000000   Number         0  sys_time.o ABSOLUTE
    ..\\..\\libraries\\ptpd-2.0.0\\src\\dep\\timer.c 0x00000000   Number         0  timer.o ABSOLUTE
    ..\\..\\libraries\\ptpd-2.0.0\\src\\protocol.c 0x00000000   Number         0  protocol.o ABSOLUTE
    ..\\..\\libraries\\ptpd-2.0.0\\src\\ptpd.c 0x00000000   Number         0  ptpd.o ABSOLUTE
    ..\\..\\libraries\\time_msg\\time_msg.c  0x00000000   Number         0  time_msg.o ABSOLUTE
    ..\\src\\Lab612_ADC.c                    0x00000000   Number         0  lab612_adc.o ABSOLUTE
    ..\\src\\Lab612_TIM.c                    0x00000000   Number         0  lab612_tim.o ABSOLUTE
    ..\\src\\Lab612_TIM_IT.c                 0x00000000   Number         0  lab612_tim_it.o ABSOLUTE
    ..\\src\\main.c                          0x00000000   Number         0  main.o ABSOLUTE
    ..\\src\\netconf.c                       0x00000000   Number         0  netconf.o ABSOLUTE
    ..\\src\\stm32f4x7_eth_bsp.c             0x00000000   Number         0  stm32f4x7_eth_bsp.o ABSOLUTE
    ..\\src\\stm32f4xx_it.c                  0x00000000   Number         0  stm32f4xx_it.o ABSOLUTE
    ..\\src\\system_stm32f4xx.c              0x00000000   Number         0  system_stm32f4xx.o ABSOLUTE
    ..\src\Lab612_ADC.c                      0x00000000   Number         0  lab612_adc.o ABSOLUTE
    ..\src\Lab612_TIM.c                      0x00000000   Number         0  lab612_tim.o ABSOLUTE
    ..\src\Lab612_TIM_IT.c                   0x00000000   Number         0  lab612_tim_it.o ABSOLUTE
    ..\src\RTX_Conf_CM.c                     0x00000000   Number         0  rtx_conf_cm.o ABSOLUTE
    ..\src\main.c                            0x00000000   Number         0  main.o ABSOLUTE
    ..\src\netconf.c                         0x00000000   Number         0  netconf.o ABSOLUTE
    ..\src\stm32f4x7_eth_bsp.c               0x00000000   Number         0  stm32f4x7_eth_bsp.o ABSOLUTE
    ..\src\stm32f4xx_it.c                    0x00000000   Number         0  stm32f4xx_it.o ABSOLUTE
    ..\src\system_stm32f4xx.c                0x00000000   Number         0  system_stm32f4xx.o ABSOLUTE
    cdcmple.s                                0x00000000   Number         0  cdcmple.o ABSOLUTE
    cdrcmple.s                               0x00000000   Number         0  cdrcmple.o ABSOLUTE
    dc.s                                     0x00000000   Number         0  dc.o ABSOLUTE
    handlers.s                               0x00000000   Number         0  handlers.o ABSOLUTE
    init.s                                   0x00000000   Number         0  init.o ABSOLUTE
    startup_stm32f4xx.s                      0x00000000   Number         0  startup_stm32f4xx.o ABSOLUTE
    RESET                                    0x08000000   Section      392  startup_stm32f4xx.o(RESET)
    .ARM.Collect$$$$00000000                 0x08000188   Section        0  entry.o(.ARM.Collect$$$$00000000)
    .ARM.Collect$$$$00000001                 0x08000188   Section        4  entry2.o(.ARM.Collect$$$$00000001)
    .ARM.Collect$$$$00000004                 0x0800018c   Section        4  entry5.o(.ARM.Collect$$$$00000004)
    .ARM.Collect$$$$00000008                 0x08000190   Section        0  entry7b.o(.ARM.Collect$$$$00000008)
    .ARM.Collect$$$$0000000A                 0x08000190   Section        0  entry8b.o(.ARM.Collect$$$$0000000A)
    .ARM.Collect$$$$0000000D                 0x08000190   Section        0  entry10a.o(.ARM.Collect$$$$0000000D)
    .ARM.Collect$$$$0000000F                 0x08000190   Section        0  entry11a.o(.ARM.Collect$$$$0000000F)
    .ARM.Collect$$$$000000FF                 0x08000190   Section        0  rtx_conf_cm.o(.ARM.Collect$$$$000000FF)
    .ARM.Collect$$$$00002712                 0x080001a8   Section        4  entry2.o(.ARM.Collect$$$$00002712)
    __lit__00000000                          0x080001a8   Data           4  entry2.o(.ARM.Collect$$$$00002712)
    .emb_text                                0x080001ac   Section      384  hal_cm4.o(.emb_text)
    $v0                                      0x080001ac   Number         0  hal_cm4.o(.emb_text)
    .text                                    0x0800032c   Section        0  main.o(.text)
    .text                                    0x08000428   Section        0  stm32f4x7_eth_bsp.o(.text)
    ETH_MACDMA_Config                        0x08000429   Thumb Code   144  stm32f4x7_eth_bsp.o(.text)
    ETH_NVIC_Config                          0x080004b9   Thumb Code    42  stm32f4x7_eth_bsp.o(.text)
    ETH_GPIO_Config                          0x080004e3   Thumb Code   434  stm32f4x7_eth_bsp.o(.text)
    .text                                    0x080006cc   Section        0  stm32f4xx_it.o(.text)
    .text                                    0x08000718   Section        0  system_stm32f4xx.o(.text)
    SetSysClock                              0x08000719   Thumb Code   220  system_stm32f4xx.o(.text)
    .text                                    0x08000928   Section        0  lab612_tim.o(.text)
    .text                                    0x08000a54   Section        0  lab612_tim_it.o(.text)
    .text                                    0x08000bf4   Section        0  lab612_adc.o(.text)
    .text                                    0x08000d9c   Section        0  rtx_conf_cm.o(.text)
    .text                                    0x08000dbc   Section        0  rt_cmsis.o(.text)
    rt_ms2tick                               0x08000dbd   Thumb Code    60  rt_cmsis.o(.text)
    rt_tid2ptcb                              0x08000df9   Thumb Code    32  rt_cmsis.o(.text)
    rt_id2obj                                0x08000e19   Thumb Code    16  rt_cmsis.o(.text)
    sysThreadError                           0x08000e29   Thumb Code     2  rt_cmsis.o(.text)
    rt_timer_insert                          0x08001301   Thumb Code    60  rt_cmsis.o(.text)
    rt_timer_remove                          0x0800133d   Thumb Code    70  rt_cmsis.o(.text)
    isrMessagePut                            0x080014d3   Thumb Code    50  rt_cmsis.o(.text)
    rt_clr_box                               0x08001bfb   Thumb Code    24  rt_cmsis.o(.text)
    __get_CONTROL                            0x080020a1   Thumb Code     6  rt_cmsis.o(.text)
    __get_IPSR                               0x080020a7   Thumb Code     6  rt_cmsis.o(.text)
    .text                                    0x080020b8   Section        0  rt_event.o(.text)
    .text                                    0x08002234   Section        0  rt_list.o(.text)
    .text                                    0x080024c8   Section        0  rt_mailbox.o(.text)
    .text                                    0x08002818   Section        0  rt_membox.o(.text)
    .text                                    0x080028da   Section        0  rt_memory.o(.text)
    .text                                    0x0800298c   Section        0  rt_mutex.o(.text)
    .text                                    0x08002c0c   Section        0  rt_robin.o(.text)
    .text                                    0x08002c78   Section        0  rt_semaphore.o(.text)
    .text                                    0x08002dbc   Section        0  rt_system.o(.text)
    .text                                    0x080030d8   Section        0  rt_task.o(.text)
    rt_get_TID                               0x080030d9   Thumb Code    32  rt_task.o(.text)
    rt_init_context                          0x080030f9   Thumb Code    68  rt_task.o(.text)
    .text                                    0x080035a8   Section        0  rt_time.o(.text)
    .text                                    0x0800360c   Section        0  hal_cm.o(.text)
    rt_ret_regs                              0x08003685   Thumb Code    20  hal_cm.o(.text)
    .text                                    0x080036a0   Section        0  stm32f4_discovery.o(.text)
    .text                                    0x08003b30   Section        0  stm32f4xx_usart.o(.text)
    .text                                    0x08003f4c   Section        0  misc.o(.text)
    .text                                    0x0800402c   Section        0  stm32f4xx_adc.o(.text)
    .text                                    0x08004490   Section        0  stm32f4xx_dma.o(.text)
    .text                                    0x08004838   Section        0  stm32f4xx_exti.o(.text)
    .text                                    0x08004954   Section        0  stm32f4xx_gpio.o(.text)
    .text                                    0x08004bb0   Section        0  stm32f4xx_rcc.o(.text)
    .text                                    0x08005138   Section        0  stm32f4xx_sdio.o(.text)
    .text                                    0x08005314   Section        0  stm32f4xx_syscfg.o(.text)
    .text                                    0x080053a0   Section        0  stm32f4xx_tim.o(.text)
    TI4_Config                               0x08005b3f   Thumb Code    80  stm32f4xx_tim.o(.text)
    TI3_Config                               0x08005ba1   Thumb Code    72  stm32f4xx_tim.o(.text)
    TI2_Config                               0x08005c03   Thumb Code    90  stm32f4xx_tim.o(.text)
    TI1_Config                               0x08005c6f   Thumb Code    58  stm32f4xx_tim.o(.text)
    .text                                    0x08006044   Section        0  stm32f4xx_spi.o(.text)
    .text                                    0x0800643c   Section        0  stm32f4x7_eth.o(.text)
    ETH_Delay                                0x0800643d   Thumb Code    28  stm32f4x7_eth.o(.text)
    .text                                    0x080074d0   Section       36  startup_stm32f4xx.o(.text)
    $v0                                      0x080074d0   Number         0  startup_stm32f4xx.o(.text)
    .text                                    0x080074f4   Section        0  netconf.o(.text)
    .text                                    0x08007540   Section        0  ethernetif.o(.text)
    low_level_input_test                     0x080075b5   Thumb Code   416  ethernetif.o(.text)
    ETH_PTPStart                             0x08007773   Thumb Code    80  ethernetif.o(.text)
    .text                                    0x08007c94   Section        0  pbuf.o(.text)
    .text                                    0x08008388   Section        0  memp.o(.text)
    .text                                    0x08008434   Section        0  mem.o(.text)
    plug_holes                               0x08008435   Thumb Code   124  mem.o(.text)
    .text                                    0x080087a0   Section        0  sys_arch.o(.text)
    .text                                    0x08008c9c   Section        0  ptpd.o(.text)
    ptpd_thread                              0x08008c9d   Thumb Code   152  ptpd.o(.text)
    .text                                    0x08008dc8   Section        0  protocol.o(.text)
    doInit                                   0x080090c9   Thumb Code    64  protocol.o(.text)
    MACissueDelayReq                         0x08009109   Thumb Code    84  protocol.o(.text)
    issueDelayReqTimerExpired                0x0800915d   Thumb Code   172  protocol.o(.text)
    handleSignaling                          0x08009209   Thumb Code     2  protocol.o(.text)
    handleManagement                         0x0800920b   Thumb Code     2  protocol.o(.text)
    handlePDelayRespFollowUp                 0x0800920d   Thumb Code   184  protocol.o(.text)
    handlePDelayResp                         0x080092c5   Thumb Code   256  protocol.o(.text)
    handleDelayResp                          0x080093c5   Thumb Code   200  protocol.o(.text)
    issuePDelayRespFollowUp                  0x0800948d   Thumb Code    54  protocol.o(.text)
    issuePDelayResp                          0x080094c3   Thumb Code    74  protocol.o(.text)
    handlePDelayReq                          0x0800950d   Thumb Code   136  protocol.o(.text)
    issueDelayResp                           0x08009595   Thumb Code    56  protocol.o(.text)
    handleDelayReq                           0x080095cd   Thumb Code   104  protocol.o(.text)
    handleFollowUp                           0x08009635   Thumb Code   198  protocol.o(.text)
    handleSync                               0x080096fb   Thumb Code   222  protocol.o(.text)
    handleAnnounce                           0x080097d9   Thumb Code   278  protocol.o(.text)
    handle                                   0x08009925   Thumb Code   452  protocol.o(.text)
    issueAnnounce                            0x08009ae9   Thumb Code    54  protocol.o(.text)
    issueFollowup                            0x08009b1f   Thumb Code    52  protocol.o(.text)
    issueSync                                0x08009b53   Thumb Code   104  protocol.o(.text)
    issuePDelayReq                           0x08009e0d   Thumb Code   104  protocol.o(.text)
    .text                                    0x08009e74   Section        0  net.o(.text)
    netQInit                                 0x08009e75   Thumb Code    20  net.o(.text)
    netQPut                                  0x08009e89   Thumb Code    64  net.o(.text)
    netQGet                                  0x08009ec9   Thumb Code    56  net.o(.text)
    netQEmpty                                0x08009f01   Thumb Code    58  net.o(.text)
    netQCheck                                0x08009f63   Thumb Code    40  net.o(.text)
    findIMACface                             0x08009f95   Thumb Code    28  net.o(.text)
    netRecvEventCallback                     0x08009fb1   Thumb Code    46  net.o(.text)
    netRecvGeneralCallback                   0x08009fdf   Thumb Code    46  net.o(.text)
    netRecv                                  0x0800a06f   Thumb Code   122  net.o(.text)
    netSend                                  0x0800a115   Thumb Code    78  net.o(.text)
    .text                                    0x0800a1e4   Section        0  startup.o(.text)
    .text                                    0x0800a22c   Section        0  bmc.o(.text)
    .text                                    0x0800a884   Section        0  arith.o(.text)
    .text                                    0x0800aa28   Section        0  timer.o(.text)
    timerCallback                            0x0800aa29   Thumb Code    22  timer.o(.text)
    .text                                    0x0800aaf0   Section        0  sys_time.o(.text)
    .text                                    0x0800ad70   Section        0  servo.o(.text)
    order                                    0x0800ae49   Thumb Code    24  servo.o(.text)
    filter                                   0x0800ae61   Thumb Code   172  servo.o(.text)
    .text                                    0x0800b1cc   Section        0  msg.o(.text)
    .text                                    0x0800b7c0   Section        0  def.o(.text)
    .text                                    0x0800b800   Section        0  app.o(.text)
    .text                                    0x0800baf0   Section        0  drv_canfdspi_api.o(.text)
    .text                                    0x0800eb8e   Section        0  drv_spi.o(.text)
    .text                                    0x0800ebb0   Section        0  uldiv.o(.text)
    .text                                    0x0800ec12   Section        0  ldiv.o(.text)
    .text                                    0x0800ec74   Section        0  llshl.o(.text)
    .text                                    0x0800ec94   Section        0  rand.o(.text)
    .text                                    0x0800ecb8   Section        0  memcpya.o(.text)
    .text                                    0x0800ecdc   Section        0  memseta.o(.text)
    .text                                    0x0800ed00   Section        0  strlen.o(.text)
    .text                                    0x0800ed0e   Section        0  memcmp.o(.text)
    .text                                    0x0800ed28   Section        0  llushr.o(.text)
    .text                                    0x0800ed48   Section       36  init.o(.text)
    .text                                    0x0800ed6c   Section        0  __dczerorl2.o(.text)
    SVC_TABLE                                0x0800edc4   Section        4  svc_table.o(SVC_TABLE)
    i.__0printf$8                            0x0800edc8   Section        0  printf8.o(i.__0printf$8)
    i.__scatterload_copy                     0x0800ede8   Section       14  handlers.o(i.__scatterload_copy)
    i.__scatterload_null                     0x0800edf6   Section        2  handlers.o(i.__scatterload_null)
    i.__scatterload_zeroinit                 0x0800edf8   Section       14  handlers.o(i.__scatterload_zeroinit)
    i._printf_core                           0x0800ee08   Section        0  printf8.o(i._printf_core)
    _printf_core                             0x0800ee09   Thumb Code   996  printf8.o(i._printf_core)
    i._printf_post_padding                   0x0800f218   Section        0  printf8.o(i._printf_post_padding)
    _printf_post_padding                     0x0800f219   Thumb Code    36  printf8.o(i._printf_post_padding)
    i._printf_pre_padding                    0x0800f23c   Section        0  printf8.o(i._printf_pre_padding)
    _printf_pre_padding                      0x0800f23d   Thumb Code    46  printf8.o(i._printf_pre_padding)
    i.spi_master_init                        0x0800f26c   Section        0  drv_spi.o(i.spi_master_init)
    i.spi_master_transfer                    0x0800f358   Section        0  drv_spi.o(i.spi_master_transfer)
    .constdata                               0x0800f3b8   Section       86  rtx_conf_cm.o(.constdata)
    __tagsym$$used                           0x0800f3d4   Number         0  rtx_conf_cm.o(.constdata)
    __tagsym$$used                           0x0800f3d8   Number         0  rtx_conf_cm.o(.constdata)
    __tagsym$$used                           0x0800f3dc   Number         0  rtx_conf_cm.o(.constdata)
    __tagsym$$used                           0x0800f3e0   Number         0  rtx_conf_cm.o(.constdata)
    .constdata                               0x0800f410   Section       88  stm32f4_discovery.o(.constdata)
    .constdata                               0x0800f468   Section       52  memp.o(.constdata)
    memp_sizes                               0x0800f468   Data          26  memp.o(.constdata)
    memp_num                                 0x0800f482   Data          26  memp.o(.constdata)
    .constdata                               0x0800f49c   Section        4  sys_arch.o(.constdata)
    .constdata                               0x0800f4a0   Section      888  drv_canfdspi_api.o(.constdata)
    canControlResetValues                    0x0800f4a0   Data          80  drv_canfdspi_api.o(.constdata)
    canFifoResetValues                       0x0800f4f0   Data          12  drv_canfdspi_api.o(.constdata)
    canFilterObjectResetValues               0x0800f4fc   Data           8  drv_canfdspi_api.o(.constdata)
    mcp25xxfdControlResetValues              0x0800f504   Data          20  drv_canfdspi_api.o(.constdata)
    .data                                    0x20000000   Section        8  main.o(.data)
    .data                                    0x20000008   Section        4  stm32f4x7_eth_bsp.o(.data)
    .data                                    0x2000000c   Section       20  system_stm32f4xx.o(.data)
    .data                                    0x20000020   Section       12  lab612_tim.o(.data)
    .data                                    0x2000002c   Section       28  lab612_tim_it.o(.data)
    .data                                    0x20000048   Section        4  lab612_adc.o(.data)
    .data                                    0x2000004c   Section       32  rtx_conf_cm.o(.data)
    .data                                    0x2000006c   Section        8  rt_cmsis.o(.data)
    .data                                    0x20000074   Section        8  rt_robin.o(.data)
    .data                                    0x2000007c   Section        7  rt_system.o(.data)
    os_lock                                  0x20000080   Data           1  rt_system.o(.data)
    os_psh_flag                              0x20000081   Data           1  rt_system.o(.data)
    pend_flags                               0x20000082   Data           1  rt_system.o(.data)
    .data                                    0x20000084   Section        8  rt_task.o(.data)
    .data                                    0x2000008c   Section        4  rt_time.o(.data)
    .data                                    0x20000090   Section       48  stm32f4_discovery.o(.data)
    .data                                    0x200000c0   Section       16  stm32f4xx_rcc.o(.data)
    APBAHBPrescTable                         0x200000c0   Data          16  stm32f4xx_rcc.o(.data)
    .data                                    0x200000d0   Section       16  stm32f4x7_eth.o(.data)
    .data                                    0x200000e0   Section        4  ethernetif.o(.data)
    s_pxNetIf                                0x200000e0   Data           4  ethernetif.o(.data)
    .data                                    0x200000e4   Section       12  mem.o(.data)
    ram                                      0x200000e4   Data           4  mem.o(.data)
    ram_end                                  0x200000e8   Data           4  mem.o(.data)
    lfree                                    0x200000ec   Data           4  mem.o(.data)
    .data                                    0x200000f0   Section        8  sys_arch.o(.data)
    thread_pool_index                        0x200000f4   Data           4  sys_arch.o(.data)
    .data                                    0x200000f8   Section        2  protocol.o(.data)
    .data                                    0x200000fc   Section        4  net.o(.data)
    .data                                    0x20000100   Section        6  timer.o(.data)
    ptpdTimersExpired                        0x20000100   Data           6  timer.o(.data)
    .data                                    0x20000108   Section       57  app.o(.data)
    .data                                    0x20000144   Section        4  rand.o(.data)
    _rand_state                              0x20000144   Data           4  rand.o(.data)
    .data                                    0x20000148   Section        4  stdout.o(.data)
    .bss                                     0x2000014c   Section      372  main.o(.bss)
    .bss                                     0x200002c0   Section    12920  rtx_conf_cm.o(.bss)
    .bss                                     0x20003538   Section       48  rt_list.o(.bss)
    .bss                                     0x20003568   Section       52  rt_task.o(.bss)
    .bss                                     0x2000359c   Section    15572  stm32f4x7_eth.o(.bss)
    .bss                                     0x20007270   Section       40  netconf.o(.bss)
    .bss                                     0x20007298   Section       32  ethernetif.o(.bss)
    .bss                                     0x200072b8   Section    31767  memp.o(.bss)
    memp_tab                                 0x200072b8   Data          52  memp.o(.bss)
    memp_memory                              0x200072ec   Data       31715  memp.o(.bss)
    .bss                                     0x2000eed0   Section     4140  mem.o(.bss)
    mem_mutex                                0x2000fee4   Data          24  mem.o(.bss)
    .bss                                     0x2000fefc   Section      136  sys_arch.o(.bss)
    thread_pool                              0x2000ff0c   Data         120  sys_arch.o(.bss)
    .bss                                     0x2000ff88   Section     1728  ptpd.o(.bss)
    ptp_alert_queue                          0x2000ff88   Data          92  ptpd.o(.bss)
    .bss                                     0x20010648   Section      192  timer.o(.bss)
    ptpdTimers                               0x20010648   Data         192  timer.o(.bss)
    .bss                                     0x20010708   Section      164  app.o(.bss)
    .bss                                     0x200107ac   Section      192  drv_canfdspi_api.o(.bss)
    STACK                                    0x20010870   Section     1024  startup_stm32f4xx.o(STACK)

    Global Symbols

    Symbol Name                              Value     Ov Type        Size  Object(Section)

    BuildAttributes$$THM_ISAv4$E$P$D$K$B$S$7EM$VFPi3$EXTD16$VFPS$VFMA$PE$A:L22UL41UL21$X:L11$S22US41US21$IEEE1$IW$USESV6$~STKCKD$USESV7$~SHL$OSPACE$ROPI$EBA8$MICROLIB$REQ8$PRES8$EABIv2 0x00000000   Number         0  anon$$obj.o ABSOLUTE
    __ARM_use_no_argv                        0x00000000   Number         0  main.o ABSOLUTE
    _printf_a                                0x00000000   Number         0  stubs.o ABSOLUTE
    _printf_c                                0x00000000   Number         0  stubs.o ABSOLUTE
    _printf_charcount                        0x00000000   Number         0  stubs.o ABSOLUTE
    _printf_d                                0x00000000   Number         0  stubs.o ABSOLUTE
    _printf_e                                0x00000000   Number         0  stubs.o ABSOLUTE
    _printf_f                                0x00000000   Number         0  stubs.o ABSOLUTE
    _printf_flags                            0x00000000   Number         0  stubs.o ABSOLUTE
    _printf_fp_dec                           0x00000000   Number         0  stubs.o ABSOLUTE
    _printf_fp_hex                           0x00000000   Number         0  stubs.o ABSOLUTE
    _printf_g                                0x00000000   Number         0  stubs.o ABSOLUTE
    _printf_i                                0x00000000   Number         0  stubs.o ABSOLUTE
    _printf_int_dec                          0x00000000   Number         0  stubs.o ABSOLUTE
    _printf_l                                0x00000000   Number         0  stubs.o ABSOLUTE
    _printf_lc                               0x00000000   Number         0  stubs.o ABSOLUTE
    _printf_ll                               0x00000000   Number         0  stubs.o ABSOLUTE
    _printf_lld                              0x00000000   Number         0  stubs.o ABSOLUTE
    _printf_lli                              0x00000000   Number         0  stubs.o ABSOLUTE
    _printf_llo                              0x00000000   Number         0  stubs.o ABSOLUTE
    _printf_llu                              0x00000000   Number         0  stubs.o ABSOLUTE
    _printf_llx                              0x00000000   Number         0  stubs.o ABSOLUTE
    _printf_longlong_dec                     0x00000000   Number         0  stubs.o ABSOLUTE
    _printf_longlong_hex                     0x00000000   Number         0  stubs.o ABSOLUTE
    _printf_longlong_oct                     0x00000000   Number         0  stubs.o ABSOLUTE
    _printf_ls                               0x00000000   Number         0  stubs.o ABSOLUTE
    _printf_mbtowc                           0x00000000   Number         0  stubs.o ABSOLUTE
    _printf_n                                0x00000000   Number         0  stubs.o ABSOLUTE
    _printf_o                                0x00000000   Number         0  stubs.o ABSOLUTE
    _printf_p                                0x00000000   Number         0  stubs.o ABSOLUTE
    _printf_percent                          0x00000000   Number         0  stubs.o ABSOLUTE
    _printf_pre_padding                      0x00000000   Number         0  stubs.o ABSOLUTE
    _printf_return_value                     0x00000000   Number         0  stubs.o ABSOLUTE
    _printf_s                                0x00000000   Number         0  stubs.o ABSOLUTE
    _printf_sizespec                         0x00000000   Number         0  stubs.o ABSOLUTE
    _printf_str                              0x00000000   Number         0  stubs.o ABSOLUTE
    _printf_truncate_signed                  0x00000000   Number         0  stubs.o ABSOLUTE
    _printf_truncate_unsigned                0x00000000   Number         0  stubs.o ABSOLUTE
    _printf_u                                0x00000000   Number         0  stubs.o ABSOLUTE
    _printf_wc                               0x00000000   Number         0  stubs.o ABSOLUTE
    _printf_wctomb                           0x00000000   Number         0  stubs.o ABSOLUTE
    _printf_widthprec                        0x00000000   Number         0  stubs.o ABSOLUTE
    _printf_x                                0x00000000   Number         0  stubs.o ABSOLUTE
    __cpp_initialize__aeabi_                  - Undefined Weak Reference
    __cxa_finalize                            - Undefined Weak Reference
    _clock_init                               - Undefined Weak Reference
    _microlib_exit                            - Undefined Weak Reference
    __Vectors_Size                           0x00000188   Number         0  startup_stm32f4xx.o ABSOLUTE
    __RL_RTX_VER                             0x00000473   Number         0  rt_system.o ABSOLUTE
    __Vectors                                0x08000000   Data           4  startup_stm32f4xx.o(RESET)
    __Vectors_End                            0x08000188   Data           0  startup_stm32f4xx.o(RESET)
    __main                                   0x08000189   Thumb Code     0  entry.o(.ARM.Collect$$$$00000000)
    _main_stk                                0x08000189   Thumb Code     0  entry2.o(.ARM.Collect$$$$00000001)
    _main_scatterload                        0x0800018d   Thumb Code     0  entry5.o(.ARM.Collect$$$$00000004)
    __main_after_scatterload                 0x08000191   Thumb Code     0  entry5.o(.ARM.Collect$$$$00000004)
    __rt_final_cpp                           0x08000191   Thumb Code     0  entry10a.o(.ARM.Collect$$$$0000000D)
    __rt_final_exit                          0x08000191   Thumb Code     0  entry11a.o(.ARM.Collect$$$$0000000F)
    _main_clock                              0x08000191   Thumb Code     0  entry7b.o(.ARM.Collect$$$$00000008)
    _main_cpp_init                           0x08000191   Thumb Code     0  entry8b.o(.ARM.Collect$$$$0000000A)
    _main_init                               0x08000191   Thumb Code    18  rtx_conf_cm.o(.ARM.Collect$$$$000000FF)
    rt_set_PSP                               0x080001ad   Thumb Code     6  hal_cm4.o(.emb_text)
    rt_get_PSP                               0x080001b3   Thumb Code     6  hal_cm4.o(.emb_text)
    os_set_env                               0x080001b9   Thumb Code    24  hal_cm4.o(.emb_text)
    _alloc_box                               0x080001d5   Thumb Code    28  hal_cm4.o(.emb_text)
    _free_box                                0x080001f5   Thumb Code    28  hal_cm4.o(.emb_text)
    SVC_Handler                              0x08000215   Thumb Code   148  hal_cm4.o(.emb_text)
    PendSV_Handler                           0x080002b5   Thumb Code    96  hal_cm4.o(.emb_text)
    SysTick_Handler                          0x08000319   Thumb Code     8  hal_cm4.o(.emb_text)
    OS_Tick_Handler                          0x08000321   Thumb Code    12  hal_cm4.o(.emb_text)
    TestLEDInit                              0x0800032d   Thumb Code    44  main.o(.text)
    UART_Init                                0x08000359   Thumb Code    62  main.o(.text)
    main                                     0x08000397   Thumb Code    52  main.o(.text)
    Delay                                    0x080003cb   Thumb Code    14  main.o(.text)
    fputc                                    0x080003d9   Thumb Code    44  main.o(.text)
    ETH_BSP_Config                           0x08000695   Thumb Code    26  stm32f4x7_eth_bsp.o(.text)
    TIM2_IRQHandler                          0x080006cd   Thumb Code     8  stm32f4xx_it.o(.text)
    DMA2_Stream0_IRQHandler                  0x080006d5   Thumb Code     8  stm32f4xx_it.o(.text)
    NMI_Handler                              0x080006dd   Thumb Code     2  stm32f4xx_it.o(.text)
    HardFault_Handler                        0x080006df   Thumb Code     4  stm32f4xx_it.o(.text)
    MemManage_Handler                        0x080006e3   Thumb Code     4  stm32f4xx_it.o(.text)
    BusFault_Handler                         0x080006e7   Thumb Code     4  stm32f4xx_it.o(.text)
    UsageFault_Handler                       0x080006eb   Thumb Code     4  stm32f4xx_it.o(.text)
    DebugMon_Handler                         0x080006ef   Thumb Code     2  stm32f4xx_it.o(.text)
    ETH_IRQHandler                           0x080006f1   Thumb Code    34  stm32f4xx_it.o(.text)
    SystemInit                               0x080007f5   Thumb Code    88  system_stm32f4xx.o(.text)
    SystemCoreClockUpdate                    0x0800084d   Thumb Code   174  system_stm32f4xx.o(.text)
    TIM2_Configuration                       0x08000929   Thumb Code   186  lab612_tim.o(.text)
    Timer_NVIC_Config                        0x080009e3   Thumb Code    78  lab612_tim.o(.text)
    Timer_Config                             0x08000a31   Thumb Code    26  lab612_tim.o(.text)
    TIM2_IT_PA3_ADPLL                        0x08000a55   Thumb Code   254  lab612_tim_it.o(.text)
    DMA2_Stream0_IT                          0x08000b53   Thumb Code   106  lab612_tim_it.o(.text)
    ADC2_CH12_Config                         0x08000bf5   Thumb Code    62  lab612_adc.o(.text)
    ADC1_CH9_Config                          0x08000c33   Thumb Code    62  lab612_adc.o(.text)
    GPIO_Config                              0x08000c71   Thumb Code    52  lab612_adc.o(.text)
    DMA_Config                               0x08000ca5   Thumb Code   112  lab612_adc.o(.text)
    ADC1_2_Simu_DMA_Config                   0x08000d15   Thumb Code    84  lab612_adc.o(.text)
    ADC_Config                               0x08000d69   Thumb Code    20  lab612_adc.o(.text)
    os_idle_demon                            0x08000d9d   Thumb Code     4  rtx_conf_cm.o(.text)
    os_error                                 0x08000da1   Thumb Code    26  rtx_conf_cm.o(.text)
    svcThreadGetId                           0x08000e2b   Thumb Code    24  rt_cmsis.o(.text)
    svcThreadTerminate                       0x08000e43   Thumb Code    64  rt_cmsis.o(.text)
    osThreadExit                             0x08000e83   Thumb Code    22  rt_cmsis.o(.text)
    svcThreadCreate                          0x08000e99   Thumb Code   138  rt_cmsis.o(.text)
    svcMessageCreate                         0x08000f23   Thumb Code    60  rt_cmsis.o(.text)
    svcKernelInitialize                      0x08000f5f   Thumb Code   102  rt_cmsis.o(.text)
    svcKernelStart                           0x08000fc5   Thumb Code    86  rt_cmsis.o(.text)
    svcKernelRunning                         0x0800101b   Thumb Code     6  rt_cmsis.o(.text)
    svcKernelSysTick                         0x08001021   Thumb Code    62  rt_cmsis.o(.text)
    osKernelInitialize                       0x0800105f   Thumb Code    40  rt_cmsis.o(.text)
    osKernelStart                            0x08001087   Thumb Code   150  rt_cmsis.o(.text)
    osKernelRunning                          0x0800111d   Thumb Code    36  rt_cmsis.o(.text)
    osKernelSysTick                          0x08001141   Thumb Code    24  rt_cmsis.o(.text)
    svcThreadYield                           0x08001159   Thumb Code    10  rt_cmsis.o(.text)
    svcThreadSetPriority                     0x08001163   Thumb Code    62  rt_cmsis.o(.text)
    svcThreadGetPriority                     0x080011a1   Thumb Code    86  rt_cmsis.o(.text)
    osThreadCreate                           0x080011f7   Thumb Code    58  rt_cmsis.o(.text)
    osThreadGetId                            0x08001231   Thumb Code    24  rt_cmsis.o(.text)
    osThreadTerminate                        0x08001249   Thumb Code    28  rt_cmsis.o(.text)
    osThreadYield                            0x08001265   Thumb Code    24  rt_cmsis.o(.text)
    osThreadSetPriority                      0x0800127d   Thumb Code    32  rt_cmsis.o(.text)
    osThreadGetPriority                      0x0800129d   Thumb Code    28  rt_cmsis.o(.text)
    svcDelay                                 0x080012b9   Thumb Code    28  rt_cmsis.o(.text)
    osDelay                                  0x080012d5   Thumb Code    28  rt_cmsis.o(.text)
    osWait                                   0x080012f1   Thumb Code    16  rt_cmsis.o(.text)
    svcTimerCreate                           0x08001383   Thumb Code   106  rt_cmsis.o(.text)
    svcTimerStart                            0x080013ed   Thumb Code    88  rt_cmsis.o(.text)
    svcTimerStop                             0x08001445   Thumb Code    48  rt_cmsis.o(.text)
    svcTimerDelete                           0x08001475   Thumb Code    52  rt_cmsis.o(.text)
    svcTimerCall                             0x080014a9   Thumb Code    42  rt_cmsis.o(.text)
    sysTimerTick                             0x08001505   Thumb Code    70  rt_cmsis.o(.text)
    sysUserTimerWakeupTime                   0x0800154b   Thumb Code    20  rt_cmsis.o(.text)
    sysUserTimerUpdate                       0x0800155f   Thumb Code    68  rt_cmsis.o(.text)
    osTimerCreate                            0x080015a3   Thumb Code    64  rt_cmsis.o(.text)
    osTimerStart                             0x080015e3   Thumb Code    50  rt_cmsis.o(.text)
    osTimerStop                              0x08001615   Thumb Code    28  rt_cmsis.o(.text)
    osTimerDelete                            0x08001631   Thumb Code    28  rt_cmsis.o(.text)
    osTimerCall                              0x0800164d   Thumb Code    26  rt_cmsis.o(.text)
    svcMessageGet                            0x08001667   Thumb Code    86  rt_cmsis.o(.text)
    osMessageGet                             0x080016bd   Thumb Code   118  rt_cmsis.o(.text)
    osTimerThread                            0x08001733   Thumb Code    50  rt_cmsis.o(.text)
    svcSignalSet                             0x08001765   Thumb Code    52  rt_cmsis.o(.text)
    svcSignalClear                           0x08001799   Thumb Code    52  rt_cmsis.o(.text)
    svcSignalWait                            0x080017cd   Thumb Code   114  rt_cmsis.o(.text)
    osSignalSet                              0x0800183f   Thumb Code    80  rt_cmsis.o(.text)
    osSignalClear                            0x0800188f   Thumb Code    32  rt_cmsis.o(.text)
    osSignalWait                             0x080018af   Thumb Code    48  rt_cmsis.o(.text)
    svcMutexCreate                           0x080018df   Thumb Code    54  rt_cmsis.o(.text)
    svcMutexWait                             0x08001915   Thumb Code    72  rt_cmsis.o(.text)
    svcMutexRelease                          0x0800195d   Thumb Code    48  rt_cmsis.o(.text)
    svcMutexDelete                           0x0800198d   Thumb Code    38  rt_cmsis.o(.text)
    osMutexCreate                            0x080019b3   Thumb Code    52  rt_cmsis.o(.text)
    osMutexWait                              0x080019e7   Thumb Code    32  rt_cmsis.o(.text)
    osMutexRelease                           0x08001a07   Thumb Code    28  rt_cmsis.o(.text)
    osMutexDelete                            0x08001a23   Thumb Code    28  rt_cmsis.o(.text)
    svcSemaphoreCreate                       0x08001a3f   Thumb Code    74  rt_cmsis.o(.text)
    svcSemaphoreWait                         0x08001a89   Thumb Code    72  rt_cmsis.o(.text)
    svcSemaphoreRelease                      0x08001ad1   Thumb Code    52  rt_cmsis.o(.text)
    svcSemaphoreDelete                       0x08001b05   Thumb Code    52  rt_cmsis.o(.text)
    osSemaphoreCreate                        0x08001b39   Thumb Code    58  rt_cmsis.o(.text)
    osSemaphoreWait                          0x08001b73   Thumb Code    34  rt_cmsis.o(.text)
    osSemaphoreRelease                       0x08001b95   Thumb Code    74  rt_cmsis.o(.text)
    osSemaphoreDelete                        0x08001bdf   Thumb Code    28  rt_cmsis.o(.text)
    svcPoolCreate                            0x08001c13   Thumb Code    56  rt_cmsis.o(.text)
    sysPoolAlloc                             0x08001c4b   Thumb Code    34  rt_cmsis.o(.text)
    sysPoolFree                              0x08001c6d   Thumb Code    32  rt_cmsis.o(.text)
    osPoolCreate                             0x08001c8d   Thumb Code    52  rt_cmsis.o(.text)
    osPoolAlloc                              0x08001cc1   Thumb Code    46  rt_cmsis.o(.text)
    osPoolCAlloc                             0x08001cef   Thumb Code    46  rt_cmsis.o(.text)
    osPoolFree                               0x08001d1d   Thumb Code    48  rt_cmsis.o(.text)
    svcMessagePut                            0x08001d4d   Thumb Code    68  rt_cmsis.o(.text)
    osMessageCreate                          0x08001d91   Thumb Code    58  rt_cmsis.o(.text)
    osMessagePut                             0x08001dcb   Thumb Code    44  rt_cmsis.o(.text)
    svcMailCreate                            0x08001df7   Thumb Code   102  rt_cmsis.o(.text)
    sysMailAlloc                             0x08001e5d   Thumb Code   138  rt_cmsis.o(.text)
    sysMailFree                              0x08001ee7   Thumb Code   132  rt_cmsis.o(.text)
    osMailCreate                             0x08001f6b   Thumb Code    58  rt_cmsis.o(.text)
    osMailAlloc                              0x08001fa5   Thumb Code    52  rt_cmsis.o(.text)
    osMailCAlloc                             0x08001fd9   Thumb Code    52  rt_cmsis.o(.text)
    osMailFree                               0x0800200d   Thumb Code    42  rt_cmsis.o(.text)
    osMailPut                                0x08002037   Thumb Code    30  rt_cmsis.o(.text)
    osMailGet                                0x08002055   Thumb Code    48  rt_cmsis.o(.text)
    os_suspend                               0x08002085   Thumb Code    10  rt_cmsis.o(.text)
    os_resume                                0x0800208f   Thumb Code    18  rt_cmsis.o(.text)
    rt_evt_wait                              0x080020b9   Thumb Code   110  rt_event.o(.text)
    rt_evt_set                               0x08002127   Thumb Code   100  rt_event.o(.text)
    rt_evt_clr                               0x0800218b   Thumb Code    26  rt_event.o(.text)
    isr_evt_set                              0x080021a5   Thumb Code    34  rt_event.o(.text)
    rt_evt_get                               0x080021c7   Thumb Code     8  rt_event.o(.text)
    rt_evt_psh                               0x080021cf   Thumb Code    88  rt_event.o(.text)
    rt_put_prio                              0x08002235   Thumb Code    64  rt_list.o(.text)
    rt_get_first                             0x08002275   Thumb Code    50  rt_list.o(.text)
    rt_put_rdy_first                         0x080022a7   Thumb Code    16  rt_list.o(.text)
    rt_get_same_rdy_prio                     0x080022b7   Thumb Code    34  rt_list.o(.text)
    rt_rmv_list                              0x080022d9   Thumb Code    48  rt_list.o(.text)
    rt_resort_prio                           0x08002309   Thumb Code    48  rt_list.o(.text)
    rt_put_dly                               0x08002339   Thumb Code    88  rt_list.o(.text)
    rt_dec_dly                               0x08002391   Thumb Code   130  rt_list.o(.text)
    rt_rmv_dly                               0x08002413   Thumb Code    40  rt_list.o(.text)
    rt_psq_enq                               0x0800243b   Thumb Code   120  rt_list.o(.text)
    rt_mbx_init                              0x080024c9   Thumb Code    34  rt_mailbox.o(.text)
    rt_mbx_send                              0x080024eb   Thumb Code   186  rt_mailbox.o(.text)
    rt_mbx_wait                              0x080025a5   Thumb Code   210  rt_mailbox.o(.text)
    rt_mbx_check                             0x08002677   Thumb Code    12  rt_mailbox.o(.text)
    isr_mbx_send                             0x08002683   Thumb Code    22  rt_mailbox.o(.text)
    isr_mbx_receive                          0x08002699   Thumb Code    94  rt_mailbox.o(.text)
    rt_mbx_psh                               0x080026f7   Thumb Code   282  rt_mailbox.o(.text)
    _init_box                                0x08002819   Thumb Code    88  rt_membox.o(.text)
    rt_alloc_box                             0x08002871   Thumb Code    30  rt_membox.o(.text)
    _calloc_box                              0x0800288f   Thumb Code    40  rt_membox.o(.text)
    rt_free_box                              0x080028b7   Thumb Code    36  rt_membox.o(.text)
    rt_init_mem                              0x080028db   Thumb Code    36  rt_memory.o(.text)
    rt_alloc_mem                             0x080028ff   Thumb Code    86  rt_memory.o(.text)
    rt_free_mem                              0x08002955   Thumb Code    54  rt_memory.o(.text)
    rt_mut_init                              0x0800298d   Thumb Code    18  rt_mutex.o(.text)
    rt_mut_delete                            0x0800299f   Thumb Code   198  rt_mutex.o(.text)
    rt_mut_release                           0x08002a65   Thumb Code   276  rt_mutex.o(.text)
    rt_mut_wait                              0x08002b79   Thumb Code   140  rt_mutex.o(.text)
    rt_init_robin                            0x08002c0d   Thumb Code    14  rt_robin.o(.text)
    rt_chk_robin                             0x08002c1b   Thumb Code    76  rt_robin.o(.text)
    rt_sem_init                              0x08002c79   Thumb Code    16  rt_semaphore.o(.text)
    rt_sem_delete                            0x08002c89   Thumb Code   100  rt_semaphore.o(.text)
    rt_sem_send                              0x08002ced   Thumb Code    50  rt_semaphore.o(.text)
    rt_sem_wait                              0x08002d1f   Thumb Code    76  rt_semaphore.o(.text)
    isr_sem_send                             0x08002d6b   Thumb Code    20  rt_semaphore.o(.text)
    rt_sem_psh                               0x08002d7f   Thumb Code    52  rt_semaphore.o(.text)
    rt_tsk_lock                              0x08002dbd   Thumb Code    98  rt_system.o(.text)
    rt_suspend                               0x08002e1f   Thumb Code    36  rt_system.o(.text)
    rt_tsk_unlock                            0x08002e43   Thumb Code   106  rt_system.o(.text)
    rt_resume                                0x08002ead   Thumb Code   158  rt_system.o(.text)
    rt_psh_req                               0x08002f4b   Thumb Code    24  rt_system.o(.text)
    rt_pop_req                               0x08002f63   Thumb Code   154  rt_system.o(.text)
    os_tick_init                             0x08002ffd   Thumb Code    42  rt_system.o(.text)
    os_tick_val                              0x08003027   Thumb Code    16  rt_system.o(.text)
    os_tick_ovf                              0x08003037   Thumb Code    12  rt_system.o(.text)
    os_tick_irqack                           0x08003043   Thumb Code     2  rt_system.o(.text)
    rt_systick                               0x08003045   Thumb Code    56  rt_system.o(.text)
    rt_stk_check                             0x0800307d   Thumb Code    40  rt_system.o(.text)
    rt_switch_req                            0x0800313d   Thumb Code    10  rt_task.o(.text)
    rt_dispatch                              0x08003147   Thumb Code    72  rt_task.o(.text)
    rt_block                                 0x0800318f   Thumb Code    48  rt_task.o(.text)
    rt_tsk_pass                              0x080031bf   Thumb Code    36  rt_task.o(.text)
    rt_tsk_self                              0x080031e3   Thumb Code    18  rt_task.o(.text)
    rt_tsk_prio                              0x080031f5   Thumb Code   138  rt_task.o(.text)
    rt_tsk_create                            0x0800327f   Thumb Code    84  rt_task.o(.text)
    rt_tsk_delete                            0x080032d3   Thumb Code   362  rt_task.o(.text)
    rt_sys_init                              0x0800343d   Thumb Code   292  rt_task.o(.text)
    rt_sys_start                             0x08003561   Thumb Code    62  rt_task.o(.text)
    rt_time_get                              0x080035a9   Thumb Code     6  rt_time.o(.text)
    rt_dly_wait                              0x080035af   Thumb Code    14  rt_time.o(.text)
    rt_itv_set                               0x080035bd   Thumb Code    20  rt_time.o(.text)
    rt_itv_wait                              0x080035d1   Thumb Code    52  rt_time.o(.text)
    rt_init_stack                            0x0800360d   Thumb Code    76  hal_cm.o(.text)
    rt_ret_val                               0x08003659   Thumb Code    18  hal_cm.o(.text)
    rt_ret_val2                              0x0800366b   Thumb Code    26  hal_cm.o(.text)
    STM_EVAL_LEDInit                         0x080036a1   Thumb Code    62  stm32f4_discovery.o(.text)
    STM_EVAL_LEDOn                           0x080036df   Thumb Code    16  stm32f4_discovery.o(.text)
    STM_EVAL_LEDOff                          0x080036ef   Thumb Code    16  stm32f4_discovery.o(.text)
    STM_EVAL_LEDToggle                       0x080036ff   Thumb Code    26  stm32f4_discovery.o(.text)
    STM_EVAL_PBInit                          0x08003719   Thumb Code   140  stm32f4_discovery.o(.text)
    STM_EVAL_PBGetState                      0x080037a5   Thumb Code    22  stm32f4_discovery.o(.text)
    STM_EVAL_COMInit                         0x080037bb   Thumb Code   180  stm32f4_discovery.o(.text)
    SD_LowLevel_DeInit                       0x0800386f   Thumb Code   140  stm32f4_discovery.o(.text)
    SD_LowLevel_Init                         0x080038fb   Thumb Code   184  stm32f4_discovery.o(.text)
    SD_LowLevel_DMA_TxConfig                 0x080039b3   Thumb Code   134  stm32f4_discovery.o(.text)
    SD_LowLevel_DMA_RxConfig                 0x08003a39   Thumb Code   242  stm32f4_discovery.o(.text)
    USART_DeInit                             0x08003b31   Thumb Code   156  stm32f4xx_usart.o(.text)
    USART_Init                               0x08003bcd   Thumb Code   204  stm32f4xx_usart.o(.text)
    USART_StructInit                         0x08003c99   Thumb Code    24  stm32f4xx_usart.o(.text)
    USART_ClockInit                          0x08003cb1   Thumb Code    32  stm32f4xx_usart.o(.text)
    USART_ClockStructInit                    0x08003cd1   Thumb Code    12  stm32f4xx_usart.o(.text)
    USART_Cmd                                0x08003cdd   Thumb Code    24  stm32f4xx_usart.o(.text)
    USART_SetPrescaler                       0x08003cf5   Thumb Code    16  stm32f4xx_usart.o(.text)
    USART_OverSampling8Cmd                   0x08003d05   Thumb Code    22  stm32f4xx_usart.o(.text)
    USART_OneBitMethodCmd                    0x08003d1b   Thumb Code    24  stm32f4xx_usart.o(.text)
    USART_SendData                           0x08003d33   Thumb Code     8  stm32f4xx_usart.o(.text)
    USART_ReceiveData                        0x08003d3b   Thumb Code    10  stm32f4xx_usart.o(.text)
    USART_SetAddress                         0x08003d45   Thumb Code    18  stm32f4xx_usart.o(.text)
    USART_ReceiverWakeUpCmd                  0x08003d57   Thumb Code    24  stm32f4xx_usart.o(.text)
    USART_WakeUpConfig                       0x08003d6f   Thumb Code    18  stm32f4xx_usart.o(.text)
    USART_LINBreakDetectLengthConfig         0x08003d81   Thumb Code    18  stm32f4xx_usart.o(.text)
    USART_LINCmd                             0x08003d93   Thumb Code    24  stm32f4xx_usart.o(.text)
    USART_SendBreak                          0x08003dab   Thumb Code    10  stm32f4xx_usart.o(.text)
    USART_HalfDuplexCmd                      0x08003db5   Thumb Code    24  stm32f4xx_usart.o(.text)
    USART_SetGuardTime                       0x08003dcd   Thumb Code    16  stm32f4xx_usart.o(.text)
    USART_SmartCardCmd                       0x08003ddd   Thumb Code    24  stm32f4xx_usart.o(.text)
    USART_SmartCardNACKCmd                   0x08003df5   Thumb Code    24  stm32f4xx_usart.o(.text)
    USART_IrDAConfig                         0x08003e0d   Thumb Code    18  stm32f4xx_usart.o(.text)
    USART_IrDACmd                            0x08003e1f   Thumb Code    24  stm32f4xx_usart.o(.text)
    USART_DMACmd                             0x08003e37   Thumb Code    18  stm32f4xx_usart.o(.text)
    USART_ITConfig                           0x08003e49   Thumb Code    74  stm32f4xx_usart.o(.text)
    USART_GetFlagStatus                      0x08003e93   Thumb Code    26  stm32f4xx_usart.o(.text)
    USART_ClearFlag                          0x08003ead   Thumb Code    18  stm32f4xx_usart.o(.text)
    USART_GetITStatus                        0x08003ebf   Thumb Code   110  stm32f4xx_usart.o(.text)
    USART_ClearITPendingBit                  0x08003f2d   Thumb Code    30  stm32f4xx_usart.o(.text)
    NVIC_PriorityGroupConfig                 0x08003f4d   Thumb Code    10  misc.o(.text)
    NVIC_Init                                0x08003f57   Thumb Code   106  misc.o(.text)
    NVIC_SetVectorTable                      0x08003fc1   Thumb Code    14  misc.o(.text)
    NVIC_SystemLPConfig                      0x08003fcf   Thumb Code    34  misc.o(.text)
    SysTick_CLKSourceConfig                  0x08003ff1   Thumb Code    40  misc.o(.text)
    ADC_DeInit                               0x0800402d   Thumb Code    22  stm32f4xx_adc.o(.text)
    ADC_Init                                 0x08004043   Thumb Code    74  stm32f4xx_adc.o(.text)
    ADC_StructInit                           0x0800408d   Thumb Code    20  stm32f4xx_adc.o(.text)
    ADC_CommonInit                           0x080040a1   Thumb Code    34  stm32f4xx_adc.o(.text)
    ADC_CommonStructInit                     0x080040c3   Thumb Code    12  stm32f4xx_adc.o(.text)
    ADC_Cmd                                  0x080040cf   Thumb Code    22  stm32f4xx_adc.o(.text)
    ADC_AnalogWatchdogCmd                    0x080040e5   Thumb Code    16  stm32f4xx_adc.o(.text)
    ADC_AnalogWatchdogThresholdsConfig       0x080040f5   Thumb Code     6  stm32f4xx_adc.o(.text)
    ADC_AnalogWatchdogSingleChannelConfig    0x080040fb   Thumb Code    16  stm32f4xx_adc.o(.text)
    ADC_TempSensorVrefintCmd                 0x0800410b   Thumb Code    34  stm32f4xx_adc.o(.text)
    ADC_VBATCmd                              0x0800412d   Thumb Code    34  stm32f4xx_adc.o(.text)
    ADC_RegularChannelConfig                 0x0800414f   Thumb Code   184  stm32f4xx_adc.o(.text)
    ADC_SoftwareStartConv                    0x08004207   Thumb Code    10  stm32f4xx_adc.o(.text)
    ADC_GetSoftwareStartConvStatus           0x08004211   Thumb Code    20  stm32f4xx_adc.o(.text)
    ADC_EOCOnEachRegularChannelCmd           0x08004225   Thumb Code    22  stm32f4xx_adc.o(.text)
    ADC_ContinuousModeCmd                    0x0800423b   Thumb Code    22  stm32f4xx_adc.o(.text)
    ADC_DiscModeChannelCountConfig           0x08004251   Thumb Code    24  stm32f4xx_adc.o(.text)
    ADC_DiscModeCmd                          0x08004269   Thumb Code    22  stm32f4xx_adc.o(.text)
    ADC_GetConversionValue                   0x0800427f   Thumb Code     8  stm32f4xx_adc.o(.text)
    ADC_GetMultiModeConversionValue          0x08004287   Thumb Code     8  stm32f4xx_adc.o(.text)
    ADC_DMACmd                               0x0800428f   Thumb Code    22  stm32f4xx_adc.o(.text)
    ADC_DMARequestAfterLastTransferCmd       0x080042a5   Thumb Code    22  stm32f4xx_adc.o(.text)
    ADC_MultiModeDMARequestAfterLastTransferCmd 0x080042bb   Thumb Code    34  stm32f4xx_adc.o(.text)
    ADC_InjectedChannelConfig                0x080042dd   Thumb Code   130  stm32f4xx_adc.o(.text)
    ADC_InjectedSequencerLengthConfig        0x0800435f   Thumb Code    24  stm32f4xx_adc.o(.text)
    ADC_SetInjectedOffset                    0x08004377   Thumb Code    20  stm32f4xx_adc.o(.text)
    ADC_ExternalTrigInjectedConvConfig       0x0800438b   Thumb Code    16  stm32f4xx_adc.o(.text)
    ADC_ExternalTrigInjectedConvEdgeConfig   0x0800439b   Thumb Code    16  stm32f4xx_adc.o(.text)
    ADC_SoftwareStartInjectedConv            0x080043ab   Thumb Code    10  stm32f4xx_adc.o(.text)
    ADC_GetSoftwareStartInjectedConvCmdStatus 0x080043b5   Thumb Code    20  stm32f4xx_adc.o(.text)
    ADC_AutoInjectedConvCmd                  0x080043c9   Thumb Code    22  stm32f4xx_adc.o(.text)
    ADC_InjectedDiscModeCmd                  0x080043df   Thumb Code    22  stm32f4xx_adc.o(.text)
    ADC_GetInjectedConversionValue           0x080043f5   Thumb Code    28  stm32f4xx_adc.o(.text)
    ADC_ITConfig                             0x08004411   Thumb Code    56  stm32f4xx_adc.o(.text)
    ADC_GetFlagStatus                        0x08004449   Thumb Code    18  stm32f4xx_adc.o(.text)
    ADC_ClearFlag                            0x0800445b   Thumb Code     6  stm32f4xx_adc.o(.text)
    ADC_GetITStatus                          0x08004461   Thumb Code    38  stm32f4xx_adc.o(.text)
    ADC_ClearITPendingBit                    0x08004487   Thumb Code    10  stm32f4xx_adc.o(.text)
    DMA_DeInit                               0x08004491   Thumb Code   324  stm32f4xx_dma.o(.text)
    DMA_Init                                 0x080045d5   Thumb Code    82  stm32f4xx_dma.o(.text)
    DMA_StructInit                           0x08004627   Thumb Code    34  stm32f4xx_dma.o(.text)
    DMA_Cmd                                  0x08004649   Thumb Code    22  stm32f4xx_dma.o(.text)
    DMA_PeriphIncOffsetSizeConfig            0x0800465f   Thumb Code    22  stm32f4xx_dma.o(.text)
    DMA_FlowControllerConfig                 0x08004675   Thumb Code    22  stm32f4xx_dma.o(.text)
    DMA_SetCurrDataCounter                   0x0800468b   Thumb Code     4  stm32f4xx_dma.o(.text)
    DMA_GetCurrDataCounter                   0x0800468f   Thumb Code     8  stm32f4xx_dma.o(.text)
    DMA_DoubleBufferModeConfig               0x08004697   Thumb Code    24  stm32f4xx_dma.o(.text)
    DMA_DoubleBufferModeCmd                  0x080046af   Thumb Code    22  stm32f4xx_dma.o(.text)
    DMA_MemoryTargetConfig                   0x080046c5   Thumb Code    10  stm32f4xx_dma.o(.text)
    DMA_GetCurrentMemoryTarget               0x080046cf   Thumb Code    20  stm32f4xx_dma.o(.text)
    DMA_GetCmdStatus                         0x080046e3   Thumb Code    20  stm32f4xx_dma.o(.text)
    DMA_GetFIFOStatus                        0x080046f7   Thumb Code    12  stm32f4xx_dma.o(.text)
    DMA_GetFlagStatus                        0x08004703   Thumb Code    56  stm32f4xx_dma.o(.text)
    DMA_ClearFlag                            0x0800473b   Thumb Code    40  stm32f4xx_dma.o(.text)
    DMA_ITConfig                             0x08004763   Thumb Code    58  stm32f4xx_dma.o(.text)
    DMA_GetITStatus                          0x0800479d   Thumb Code    84  stm32f4xx_dma.o(.text)
    DMA_ClearITPendingBit                    0x080047f1   Thumb Code    40  stm32f4xx_dma.o(.text)
    EXTI_DeInit                              0x08004839   Thumb Code    28  stm32f4xx_exti.o(.text)
    EXTI_Init                                0x08004855   Thumb Code   142  stm32f4xx_exti.o(.text)
    EXTI_StructInit                          0x080048e3   Thumb Code    16  stm32f4xx_exti.o(.text)
    EXTI_GenerateSWInterrupt                 0x080048f3   Thumb Code    16  stm32f4xx_exti.o(.text)
    EXTI_GetFlagStatus                       0x08004903   Thumb Code    22  stm32f4xx_exti.o(.text)
    EXTI_ClearFlag                           0x08004919   Thumb Code     8  stm32f4xx_exti.o(.text)
    EXTI_GetITStatus                         0x08004921   Thumb Code    34  stm32f4xx_exti.o(.text)
    EXTI_ClearITPendingBit                   0x08004943   Thumb Code     8  stm32f4xx_exti.o(.text)
    GPIO_DeInit                              0x08004955   Thumb Code   220  stm32f4xx_gpio.o(.text)
    GPIO_Init                                0x08004a31   Thumb Code   144  stm32f4xx_gpio.o(.text)
    GPIO_StructInit                          0x08004ac1   Thumb Code    18  stm32f4xx_gpio.o(.text)
    GPIO_PinLockConfig                       0x08004ad3   Thumb Code    34  stm32f4xx_gpio.o(.text)
    GPIO_ReadInputDataBit                    0x08004af5   Thumb Code    18  stm32f4xx_gpio.o(.text)
    GPIO_ReadInputData                       0x08004b07   Thumb Code     8  stm32f4xx_gpio.o(.text)
    GPIO_ReadOutputDataBit                   0x08004b0f   Thumb Code    18  stm32f4xx_gpio.o(.text)
    GPIO_ReadOutputData                      0x08004b21   Thumb Code     8  stm32f4xx_gpio.o(.text)
    GPIO_SetBits                             0x08004b29   Thumb Code     4  stm32f4xx_gpio.o(.text)
    GPIO_ResetBits                           0x08004b2d   Thumb Code     4  stm32f4xx_gpio.o(.text)
    GPIO_WriteBit                            0x08004b31   Thumb Code    10  stm32f4xx_gpio.o(.text)
    GPIO_Write                               0x08004b3b   Thumb Code     4  stm32f4xx_gpio.o(.text)
    GPIO_ToggleBits                          0x08004b3f   Thumb Code     8  stm32f4xx_gpio.o(.text)
    GPIO_PinAFConfig                         0x08004b47   Thumb Code    70  stm32f4xx_gpio.o(.text)
    RCC_DeInit                               0x08004bb1   Thumb Code    60  stm32f4xx_rcc.o(.text)
    RCC_HSEConfig                            0x08004bed   Thumb Code    14  stm32f4xx_rcc.o(.text)
    RCC_GetFlagStatus                        0x08004bfb   Thumb Code    60  stm32f4xx_rcc.o(.text)
    RCC_WaitForHSEStartUp                    0x08004c37   Thumb Code    56  stm32f4xx_rcc.o(.text)
    RCC_AdjustHSICalibrationValue            0x08004c6f   Thumb Code    20  stm32f4xx_rcc.o(.text)
    RCC_HSICmd                               0x08004c83   Thumb Code     6  stm32f4xx_rcc.o(.text)
    RCC_LSEConfig                            0x08004c89   Thumb Code    46  stm32f4xx_rcc.o(.text)
    RCC_LSICmd                               0x08004cb7   Thumb Code     6  stm32f4xx_rcc.o(.text)
    RCC_PLLConfig                            0x08004cbd   Thumb Code    32  stm32f4xx_rcc.o(.text)
    RCC_PLLCmd                               0x08004cdd   Thumb Code     6  stm32f4xx_rcc.o(.text)
    RCC_PLLI2SConfig                         0x08004ce3   Thumb Code    14  stm32f4xx_rcc.o(.text)
    RCC_PLLI2SCmd                            0x08004cf1   Thumb Code     6  stm32f4xx_rcc.o(.text)
    RCC_ClockSecuritySystemCmd               0x08004cf7   Thumb Code     6  stm32f4xx_rcc.o(.text)
    RCC_MCO1Config                           0x08004cfd   Thumb Code    28  stm32f4xx_rcc.o(.text)
    RCC_MCO2Config                           0x08004d19   Thumb Code    28  stm32f4xx_rcc.o(.text)
    RCC_SYSCLKConfig                         0x08004d35   Thumb Code    20  stm32f4xx_rcc.o(.text)
    RCC_GetSYSCLKSource                      0x08004d49   Thumb Code    12  stm32f4xx_rcc.o(.text)
    RCC_HCLKConfig                           0x08004d55   Thumb Code    20  stm32f4xx_rcc.o(.text)
    RCC_PCLK1Config                          0x08004d69   Thumb Code    20  stm32f4xx_rcc.o(.text)
    RCC_PCLK2Config                          0x08004d7d   Thumb Code    22  stm32f4xx_rcc.o(.text)
    RCC_GetClocksFreq                        0x08004d93   Thumb Code   222  stm32f4xx_rcc.o(.text)
    RCC_RTCCLKConfig                         0x08004e71   Thumb Code    54  stm32f4xx_rcc.o(.text)
    RCC_RTCCLKCmd                            0x08004ea7   Thumb Code     8  stm32f4xx_rcc.o(.text)
    RCC_BackupResetCmd                       0x08004eaf   Thumb Code     8  stm32f4xx_rcc.o(.text)
    RCC_I2SCLKConfig                         0x08004eb7   Thumb Code     6  stm32f4xx_rcc.o(.text)
    RCC_AHB1PeriphClockCmd                   0x08004ebd   Thumb Code    34  stm32f4xx_rcc.o(.text)
    RCC_AHB2PeriphClockCmd                   0x08004edf   Thumb Code    34  stm32f4xx_rcc.o(.text)
    RCC_AHB3PeriphClockCmd                   0x08004f01   Thumb Code    34  stm32f4xx_rcc.o(.text)
    RCC_APB1PeriphClockCmd                   0x08004f23   Thumb Code    34  stm32f4xx_rcc.o(.text)
    RCC_APB2PeriphClockCmd                   0x08004f45   Thumb Code    34  stm32f4xx_rcc.o(.text)
    RCC_AHB1PeriphResetCmd                   0x08004f67   Thumb Code    34  stm32f4xx_rcc.o(.text)
    RCC_AHB2PeriphResetCmd                   0x08004f89   Thumb Code    72  stm32f4xx_rcc.o(.text)
    RCC_AHB3PeriphResetCmd                   0x08004fd1   Thumb Code    34  stm32f4xx_rcc.o(.text)
    RCC_APB1PeriphResetCmd                   0x08004ff3   Thumb Code    34  stm32f4xx_rcc.o(.text)
    RCC_APB2PeriphResetCmd                   0x08005015   Thumb Code    34  stm32f4xx_rcc.o(.text)
    RCC_AHB1PeriphClockLPModeCmd             0x08005037   Thumb Code    34  stm32f4xx_rcc.o(.text)
    RCC_AHB2PeriphClockLPModeCmd             0x08005059   Thumb Code    34  stm32f4xx_rcc.o(.text)
    RCC_AHB3PeriphClockLPModeCmd             0x0800507b   Thumb Code    34  stm32f4xx_rcc.o(.text)
    RCC_APB1PeriphClockLPModeCmd             0x0800509d   Thumb Code    34  stm32f4xx_rcc.o(.text)
    RCC_APB2PeriphClockLPModeCmd             0x080050bf   Thumb Code    34  stm32f4xx_rcc.o(.text)
    RCC_ITConfig                             0x080050e1   Thumb Code    34  stm32f4xx_rcc.o(.text)
    RCC_ClearFlag                            0x08005103   Thumb Code    18  stm32f4xx_rcc.o(.text)
    RCC_GetITStatus                          0x08005115   Thumb Code    22  stm32f4xx_rcc.o(.text)
    RCC_ClearITPendingBit                    0x0800512b   Thumb Code     8  stm32f4xx_rcc.o(.text)
    SDIO_DeInit                              0x08005139   Thumb Code    22  stm32f4xx_sdio.o(.text)
    SDIO_Init                                0x0800514f   Thumb Code    42  stm32f4xx_sdio.o(.text)
    SDIO_StructInit                          0x08005179   Thumb Code    16  stm32f4xx_sdio.o(.text)
    SDIO_ClockCmd                            0x08005189   Thumb Code     6  stm32f4xx_sdio.o(.text)
    SDIO_SetPowerState                       0x0800518f   Thumb Code     8  stm32f4xx_sdio.o(.text)
    SDIO_GetPowerState                       0x08005197   Thumb Code    12  stm32f4xx_sdio.o(.text)
    SDIO_SendCommand                         0x080051a3   Thumb Code    42  stm32f4xx_sdio.o(.text)
    SDIO_CmdStructInit                       0x080051cd   Thumb Code    14  stm32f4xx_sdio.o(.text)
    SDIO_GetCommandResponse                  0x080051db   Thumb Code    10  stm32f4xx_sdio.o(.text)
    SDIO_GetResponse                         0x080051e5   Thumb Code    22  stm32f4xx_sdio.o(.text)
    SDIO_DataConfig                          0x080051fb   Thumb Code    48  stm32f4xx_sdio.o(.text)
    SDIO_DataStructInit                      0x0800522b   Thumb Code    20  stm32f4xx_sdio.o(.text)
    SDIO_GetDataCounter                      0x0800523f   Thumb Code     8  stm32f4xx_sdio.o(.text)
    SDIO_ReadData                            0x08005247   Thumb Code     8  stm32f4xx_sdio.o(.text)
    SDIO_WriteData                           0x0800524f   Thumb Code     8  stm32f4xx_sdio.o(.text)
    SDIO_GetFIFOCount                        0x08005257   Thumb Code     8  stm32f4xx_sdio.o(.text)
    SDIO_StartSDIOReadWait                   0x0800525f   Thumb Code     6  stm32f4xx_sdio.o(.text)
    SDIO_StopSDIOReadWait                    0x08005265   Thumb Code     8  stm32f4xx_sdio.o(.text)
    SDIO_SetSDIOReadWaitMode                 0x0800526d   Thumb Code     8  stm32f4xx_sdio.o(.text)
    SDIO_SetSDIOOperation                    0x08005275   Thumb Code     8  stm32f4xx_sdio.o(.text)
    SDIO_SendSDIOSuspendCmd                  0x0800527d   Thumb Code     6  stm32f4xx_sdio.o(.text)
    SDIO_CommandCompletionCmd                0x08005283   Thumb Code     8  stm32f4xx_sdio.o(.text)
    SDIO_CEATAITCmd                          0x0800528b   Thumb Code    12  stm32f4xx_sdio.o(.text)
    SDIO_SendCEATACmd                        0x08005297   Thumb Code     8  stm32f4xx_sdio.o(.text)
    SDIO_DMACmd                              0x0800529f   Thumb Code     8  stm32f4xx_sdio.o(.text)
    SDIO_ITConfig                            0x080052a7   Thumb Code    34  stm32f4xx_sdio.o(.text)
    SDIO_GetFlagStatus                       0x080052c9   Thumb Code    22  stm32f4xx_sdio.o(.text)
    SDIO_ClearFlag                           0x080052df   Thumb Code     8  stm32f4xx_sdio.o(.text)
    SDIO_GetITStatus                         0x080052e7   Thumb Code    22  stm32f4xx_sdio.o(.text)
    SDIO_ClearITPendingBit                   0x080052fd   Thumb Code     8  stm32f4xx_sdio.o(.text)
    SYSCFG_DeInit                            0x08005315   Thumb Code    22  stm32f4xx_syscfg.o(.text)
    SYSCFG_MemoryRemapConfig                 0x0800532b   Thumb Code     6  stm32f4xx_syscfg.o(.text)
    SYSCFG_EXTILineConfig                    0x08005331   Thumb Code    66  stm32f4xx_syscfg.o(.text)
    SYSCFG_ETH_MediaInterfaceConfig          0x08005373   Thumb Code     6  stm32f4xx_syscfg.o(.text)
    SYSCFG_CompensationCellCmd               0x08005379   Thumb Code     6  stm32f4xx_syscfg.o(.text)
    SYSCFG_GetCompensationCellStatus         0x0800537f   Thumb Code    22  stm32f4xx_syscfg.o(.text)
    TIM_DeInit                               0x080053a1   Thumb Code   346  stm32f4xx_tim.o(.text)
    TIM_TimeBaseInit                         0x080054fb   Thumb Code   104  stm32f4xx_tim.o(.text)
    TIM_TimeBaseStructInit                   0x08005563   Thumb Code    18  stm32f4xx_tim.o(.text)
    TIM_PrescalerConfig                      0x08005575   Thumb Code     6  stm32f4xx_tim.o(.text)
    TIM_CounterModeConfig                    0x0800557b   Thumb Code    18  stm32f4xx_tim.o(.text)
    TIM_SetCounter                           0x0800558d   Thumb Code     4  stm32f4xx_tim.o(.text)
    TIM_SetAutoreload                        0x08005591   Thumb Code     4  stm32f4xx_tim.o(.text)
    TIM_GetCounter                           0x08005595   Thumb Code     6  stm32f4xx_tim.o(.text)
    TIM_GetPrescaler                         0x0800559b   Thumb Code     6  stm32f4xx_tim.o(.text)
    TIM_UpdateDisableConfig                  0x080055a1   Thumb Code    24  stm32f4xx_tim.o(.text)
    TIM_UpdateRequestConfig                  0x080055b9   Thumb Code    24  stm32f4xx_tim.o(.text)
    TIM_ARRPreloadConfig                     0x080055d1   Thumb Code    24  stm32f4xx_tim.o(.text)
    TIM_SelectOnePulseMode                   0x080055e9   Thumb Code    18  stm32f4xx_tim.o(.text)
    TIM_SetClockDivision                     0x080055fb   Thumb Code    18  stm32f4xx_tim.o(.text)
    TIM_Cmd                                  0x0800560d   Thumb Code    24  stm32f4xx_tim.o(.text)
    TIM_OC1Init                              0x08005625   Thumb Code   114  stm32f4xx_tim.o(.text)
    TIM_OC2Init                              0x08005697   Thumb Code   154  stm32f4xx_tim.o(.text)
    TIM_OC3Init                              0x08005731   Thumb Code   204  stm32f4xx_tim.o(.text)
    TIM_OC4Init                              0x080057fd   Thumb Code   112  stm32f4xx_tim.o(.text)
    TIM_OCStructInit                         0x0800586d   Thumb Code    20  stm32f4xx_tim.o(.text)
    TIM_SelectOCxM                           0x08005881   Thumb Code    86  stm32f4xx_tim.o(.text)
    TIM_SetCompare1                          0x080058d7   Thumb Code     4  stm32f4xx_tim.o(.text)
    TIM_SetCompare2                          0x080058db   Thumb Code     4  stm32f4xx_tim.o(.text)
    TIM_SetCompare3                          0x080058df   Thumb Code     4  stm32f4xx_tim.o(.text)
    TIM_SetCompare4                          0x080058e3   Thumb Code     4  stm32f4xx_tim.o(.text)
    TIM_ForcedOC1Config                      0x080058e7   Thumb Code    18  stm32f4xx_tim.o(.text)
    TIM_ForcedOC2Config                      0x080058f9   Thumb Code    26  stm32f4xx_tim.o(.text)
    TIM_ForcedOC3Config                      0x08005913   Thumb Code    18  stm32f4xx_tim.o(.text)
    TIM_ForcedOC4Config                      0x08005925   Thumb Code    26  stm32f4xx_tim.o(.text)
    TIM_OC1PreloadConfig                     0x0800593f   Thumb Code    18  stm32f4xx_tim.o(.text)
    TIM_OC2PreloadConfig                     0x08005951   Thumb Code    26  stm32f4xx_tim.o(.text)
    TIM_OC3PreloadConfig                     0x0800596b   Thumb Code    18  stm32f4xx_tim.o(.text)
    TIM_OC4PreloadConfig                     0x0800597d   Thumb Code    26  stm32f4xx_tim.o(.text)
    TIM_OC1FastConfig                        0x08005997   Thumb Code    18  stm32f4xx_tim.o(.text)
    TIM_OC2FastConfig                        0x080059a9   Thumb Code    26  stm32f4xx_tim.o(.text)
    TIM_OC3FastConfig                        0x080059c3   Thumb Code    18  stm32f4xx_tim.o(.text)
    TIM_OC4FastConfig                        0x080059d5   Thumb Code    26  stm32f4xx_tim.o(.text)
    TIM_ClearOC1Ref                          0x080059ef   Thumb Code    18  stm32f4xx_tim.o(.text)
    TIM_ClearOC2Ref                          0x08005a01   Thumb Code    24  stm32f4xx_tim.o(.text)
    TIM_ClearOC3Ref                          0x08005a19   Thumb Code    18  stm32f4xx_tim.o(.text)
    TIM_ClearOC4Ref                          0x08005a2b   Thumb Code    24  stm32f4xx_tim.o(.text)
    TIM_OC1PolarityConfig                    0x08005a43   Thumb Code    18  stm32f4xx_tim.o(.text)
    TIM_OC1NPolarityConfig                   0x08005a55   Thumb Code    18  stm32f4xx_tim.o(.text)
    TIM_OC2PolarityConfig                    0x08005a67   Thumb Code    26  stm32f4xx_tim.o(.text)
    TIM_OC2NPolarityConfig                   0x08005a81   Thumb Code    26  stm32f4xx_tim.o(.text)
    TIM_OC3PolarityConfig                    0x08005a9b   Thumb Code    26  stm32f4xx_tim.o(.text)
    TIM_OC3NPolarityConfig                   0x08005ab5   Thumb Code    26  stm32f4xx_tim.o(.text)
    TIM_OC4PolarityConfig                    0x08005acf   Thumb Code    26  stm32f4xx_tim.o(.text)
    TIM_CCxCmd                               0x08005ae9   Thumb Code    30  stm32f4xx_tim.o(.text)
    TIM_CCxNCmd                              0x08005b07   Thumb Code    30  stm32f4xx_tim.o(.text)
    TIM_SetIC4Prescaler                      0x08005b25   Thumb Code    26  stm32f4xx_tim.o(.text)
    TIM_SetIC3Prescaler                      0x08005b8f   Thumb Code    18  stm32f4xx_tim.o(.text)
    TIM_SetIC2Prescaler                      0x08005be9   Thumb Code    26  stm32f4xx_tim.o(.text)
    TIM_SetIC1Prescaler                      0x08005c5d   Thumb Code    18  stm32f4xx_tim.o(.text)
    TIM_ICInit                               0x08005ca9   Thumb Code   110  stm32f4xx_tim.o(.text)
    TIM_ICStructInit                         0x08005d17   Thumb Code    18  stm32f4xx_tim.o(.text)
    TIM_PWMIConfig                           0x08005d29   Thumb Code   124  stm32f4xx_tim.o(.text)
    TIM_GetCapture1                          0x08005da5   Thumb Code     6  stm32f4xx_tim.o(.text)
    TIM_GetCapture2                          0x08005dab   Thumb Code     6  stm32f4xx_tim.o(.text)
    TIM_GetCapture3                          0x08005db1   Thumb Code     6  stm32f4xx_tim.o(.text)
    TIM_GetCapture4                          0x08005db7   Thumb Code     6  stm32f4xx_tim.o(.text)
    TIM_BDTRConfig                           0x08005dbd   Thumb Code    32  stm32f4xx_tim.o(.text)
    TIM_BDTRStructInit                       0x08005ddd   Thumb Code    18  stm32f4xx_tim.o(.text)
    TIM_CtrlPWMOutputs                       0x08005def   Thumb Code    30  stm32f4xx_tim.o(.text)
    TIM_SelectCOM                            0x08005e0d   Thumb Code    24  stm32f4xx_tim.o(.text)
    TIM_CCPreloadControl                     0x08005e25   Thumb Code    24  stm32f4xx_tim.o(.text)
    TIM_ITConfig                             0x08005e3d   Thumb Code    18  stm32f4xx_tim.o(.text)
    TIM_GenerateEvent                        0x08005e4f   Thumb Code     4  stm32f4xx_tim.o(.text)
    TIM_GetFlagStatus                        0x08005e53   Thumb Code    18  stm32f4xx_tim.o(.text)
    TIM_ClearFlag                            0x08005e65   Thumb Code     6  stm32f4xx_tim.o(.text)
    TIM_GetITStatus                          0x08005e6b   Thumb Code    34  stm32f4xx_tim.o(.text)
    TIM_ClearITPendingBit                    0x08005e8d   Thumb Code     6  stm32f4xx_tim.o(.text)
    TIM_DMAConfig                            0x08005e93   Thumb Code    10  stm32f4xx_tim.o(.text)
    TIM_DMACmd                               0x08005e9d   Thumb Code    18  stm32f4xx_tim.o(.text)
    TIM_SelectCCDMA                          0x08005eaf   Thumb Code    24  stm32f4xx_tim.o(.text)
    TIM_InternalClockConfig                  0x08005ec7   Thumb Code    12  stm32f4xx_tim.o(.text)
    TIM_SelectInputTrigger                   0x08005ed3   Thumb Code    18  stm32f4xx_tim.o(.text)
    TIM_ITRxExternalClockConfig              0x08005ee5   Thumb Code    24  stm32f4xx_tim.o(.text)
    TIM_TIxExternalClockConfig               0x08005efd   Thumb Code    62  stm32f4xx_tim.o(.text)
    TIM_ETRConfig                            0x08005f3b   Thumb Code    28  stm32f4xx_tim.o(.text)
    TIM_ETRClockMode1Config                  0x08005f57   Thumb Code    54  stm32f4xx_tim.o(.text)
    TIM_ETRClockMode2Config                  0x08005f8d   Thumb Code    32  stm32f4xx_tim.o(.text)
    TIM_SelectOutputTrigger                  0x08005fad   Thumb Code    18  stm32f4xx_tim.o(.text)
    TIM_SelectSlaveMode                      0x08005fbf   Thumb Code    18  stm32f4xx_tim.o(.text)
    TIM_SelectMasterSlaveMode                0x08005fd1   Thumb Code    18  stm32f4xx_tim.o(.text)
    TIM_EncoderInterfaceConfig               0x08005fe3   Thumb Code    66  stm32f4xx_tim.o(.text)
    TIM_SelectHallSensor                     0x08006025   Thumb Code    24  stm32f4xx_tim.o(.text)
    TIM_RemapConfig                          0x0800603d   Thumb Code     6  stm32f4xx_tim.o(.text)
    SPI_I2S_DeInit                           0x08006045   Thumb Code    76  stm32f4xx_spi.o(.text)
    SPI_Init                                 0x08006091   Thumb Code    60  stm32f4xx_spi.o(.text)
    I2S_Init                                 0x080060cd   Thumb Code   350  stm32f4xx_spi.o(.text)
    SPI_StructInit                           0x0800622b   Thumb Code    24  stm32f4xx_spi.o(.text)
    I2S_StructInit                           0x08006243   Thumb Code    20  stm32f4xx_spi.o(.text)
    SPI_Cmd                                  0x08006257   Thumb Code    24  stm32f4xx_spi.o(.text)
    I2S_Cmd                                  0x0800626f   Thumb Code    24  stm32f4xx_spi.o(.text)
    SPI_DataSizeConfig                       0x08006287   Thumb Code    18  stm32f4xx_spi.o(.text)
    SPI_BiDirectionalLineConfig              0x08006299   Thumb Code    28  stm32f4xx_spi.o(.text)
    SPI_NSSInternalSoftwareConfig            0x080062b5   Thumb Code    30  stm32f4xx_spi.o(.text)
    SPI_SSOutputCmd                          0x080062d3   Thumb Code    24  stm32f4xx_spi.o(.text)
    SPI_TIModeCmd                            0x080062eb   Thumb Code    24  stm32f4xx_spi.o(.text)
    I2S_FullDuplexConfig                     0x08006303   Thumb Code    80  stm32f4xx_spi.o(.text)
    SPI_I2S_ReceiveData                      0x08006353   Thumb Code     6  stm32f4xx_spi.o(.text)
    SPI_I2S_SendData                         0x08006359   Thumb Code     4  stm32f4xx_spi.o(.text)
    SPI_CalculateCRC                         0x0800635d   Thumb Code    24  stm32f4xx_spi.o(.text)
    SPI_TransmitCRC                          0x08006375   Thumb Code    10  stm32f4xx_spi.o(.text)
    SPI_GetCRC                               0x0800637f   Thumb Code    16  stm32f4xx_spi.o(.text)
    SPI_GetCRCPolynomial                     0x0800638f   Thumb Code     6  stm32f4xx_spi.o(.text)
    SPI_I2S_DMACmd                           0x08006395   Thumb Code    18  stm32f4xx_spi.o(.text)
    SPI_I2S_ITConfig                         0x080063a7   Thumb Code    32  stm32f4xx_spi.o(.text)
    SPI_I2S_GetFlagStatus                    0x080063c7   Thumb Code    18  stm32f4xx_spi.o(.text)
    SPI_I2S_ClearFlag                        0x080063d9   Thumb Code     6  stm32f4xx_spi.o(.text)
    SPI_I2S_GetITStatus                      0x080063df   Thumb Code    52  stm32f4xx_spi.o(.text)
    SPI_I2S_ClearITPendingBit                0x08006413   Thumb Code    42  stm32f4xx_spi.o(.text)
    ETH_DeInit                               0x08006459   Thumb Code    22  stm32f4x7_eth.o(.text)
    ETH_StructInit                           0x0800646f   Thumb Code   178  stm32f4x7_eth.o(.text)
    ETH_WritePHYRegister                     0x08006521   Thumb Code    96  stm32f4x7_eth.o(.text)
    ETH_ReadPHYRegister                      0x08006581   Thumb Code    98  stm32f4x7_eth.o(.text)
    ETH_Init                                 0x080065e3   Thumb Code   650  stm32f4x7_eth.o(.text)
    ETH_DMAReceptionCmd                      0x0800686d   Thumb Code    30  stm32f4x7_eth.o(.text)
    ETH_DMATransmissionCmd                   0x0800688b   Thumb Code    30  stm32f4x7_eth.o(.text)
    ETH_MACReceptionCmd                      0x080068a9   Thumb Code    30  stm32f4x7_eth.o(.text)
    ETH_FlushTransmitFIFO                    0x080068c7   Thumb Code    14  stm32f4x7_eth.o(.text)
    ETH_MACTransmissionCmd                   0x080068d5   Thumb Code    30  stm32f4x7_eth.o(.text)
    ETH_Start                                0x080068f3   Thumb Code    78  stm32f4x7_eth.o(.text)
    ETH_GetFlowControlBusyStatus             0x08006941   Thumb Code    20  stm32f4x7_eth.o(.text)
    ETH_InitiatePauseControlFrame            0x08006955   Thumb Code    14  stm32f4x7_eth.o(.text)
    ETH_BackPressureActivationCmd            0x08006963   Thumb Code    30  stm32f4x7_eth.o(.text)
    ETH_GetMACFlagStatus                     0x08006981   Thumb Code    20  stm32f4x7_eth.o(.text)
    ETH_GetMACITStatus                       0x08006995   Thumb Code    20  stm32f4x7_eth.o(.text)
    ETH_MACITConfig                          0x080069a9   Thumb Code    26  stm32f4x7_eth.o(.text)
    ETH_MACAddressConfig                     0x080069c3   Thumb Code    46  stm32f4x7_eth.o(.text)
    ETH_GetMACAddress                        0x080069f1   Thumb Code    36  stm32f4x7_eth.o(.text)
    ETH_MACAddressPerfectFilterCmd           0x08006a15   Thumb Code    38  stm32f4x7_eth.o(.text)
    ETH_MACAddressFilterConfig               0x08006a3b   Thumb Code    40  stm32f4x7_eth.o(.text)
    ETH_MACAddressMaskBytesFilterConfig      0x08006a63   Thumb Code    32  stm32f4x7_eth.o(.text)
    ETH_Get_Received_Frame                   0x08006a83   Thumb Code    82  stm32f4x7_eth.o(.text)
    ETH_Get_Received_Frame_interrupt         0x08006ad5   Thumb Code   268  stm32f4x7_eth.o(.text)
    ETH_Prepare_Transmit_Descriptors         0x08006be1   Thumb Code   222  stm32f4x7_eth.o(.text)
    ETH_Prepare_Transmit_Descriptors_TimeStamp 0x08006cbf   Thumb Code   378  stm32f4x7_eth.o(.text)
    ETH_DMARxDescChainInit                   0x08006e39   Thumb Code    82  stm32f4x7_eth.o(.text)
    ETH_CheckFrameReceived                   0x08006e8b   Thumb Code   190  stm32f4x7_eth.o(.text)
    ETH_DMATxDescChainInit                   0x08006f49   Thumb Code    70  stm32f4x7_eth.o(.text)
    ETH_GetDMATxDescFlagStatus               0x08006f8f   Thumb Code    18  stm32f4x7_eth.o(.text)
    ETH_GetDMATxDescCollisionCount           0x08006fa1   Thumb Code    10  stm32f4x7_eth.o(.text)
    ETH_SetDMATxDescOwnBit                   0x08006fab   Thumb Code    10  stm32f4x7_eth.o(.text)
    ETH_DMATxDescTransmitITConfig            0x08006fb5   Thumb Code    22  stm32f4x7_eth.o(.text)
    ETH_DMATxDescFrameSegmentConfig          0x08006fcb   Thumb Code     8  stm32f4x7_eth.o(.text)
    ETH_DMATxDescChecksumInsertionConfig     0x08006fd3   Thumb Code     8  stm32f4x7_eth.o(.text)
    ETH_DMATxDescCRCCmd                      0x08006fdb   Thumb Code    22  stm32f4x7_eth.o(.text)
    ETH_DMATxDescSecondAddressChainedCmd     0x08006ff1   Thumb Code    22  stm32f4x7_eth.o(.text)
    ETH_DMATxDescShortFramePaddingCmd        0x08007007   Thumb Code    22  stm32f4x7_eth.o(.text)
    ETH_DMATxDescBufferSizeConfig            0x0800701d   Thumb Code    14  stm32f4x7_eth.o(.text)
    ETH_GetDMARxDescFlagStatus               0x0800702b   Thumb Code    18  stm32f4x7_eth.o(.text)
    ETH_GetDMAPTPRxDescExtendedFlagStatus    0x0800703d   Thumb Code    18  stm32f4x7_eth.o(.text)
    ETH_SetDMARxDescOwnBit                   0x0800704f   Thumb Code    10  stm32f4x7_eth.o(.text)
    ETH_GetDMARxDescFrameLength              0x08007059   Thumb Code    10  stm32f4x7_eth.o(.text)
    ETH_DMARxDescReceiveITConfig             0x08007063   Thumb Code    22  stm32f4x7_eth.o(.text)
    ETH_GetDMARxDescBufferSize               0x08007079   Thumb Code    20  stm32f4x7_eth.o(.text)
    ETH_GetRxPktSize                         0x0800708d   Thumb Code    42  stm32f4x7_eth.o(.text)
    ETH_EnhancedDescriptorCmd                0x080070b7   Thumb Code    30  stm32f4x7_eth.o(.text)
    ETH_SoftwareReset                        0x080070d5   Thumb Code    14  stm32f4x7_eth.o(.text)
    ETH_GetSoftwareResetStatus               0x080070e3   Thumb Code    20  stm32f4x7_eth.o(.text)
    ETH_GetDMAFlagStatus                     0x080070f7   Thumb Code    20  stm32f4x7_eth.o(.text)
    ETH_DMAClearFlag                         0x0800710b   Thumb Code     6  stm32f4x7_eth.o(.text)
    ETH_DMAITConfig                          0x08007111   Thumb Code    26  stm32f4x7_eth.o(.text)
    ETH_GetDMAITStatus                       0x0800712b   Thumb Code    46  stm32f4x7_eth.o(.text)
    ETH_DMAClearITPendingBit                 0x08007159   Thumb Code     6  stm32f4x7_eth.o(.text)
    ETH_GetTransmitProcessState              0x0800715f   Thumb Code    10  stm32f4x7_eth.o(.text)
    ETH_GetReceiveProcessState               0x08007169   Thumb Code    10  stm32f4x7_eth.o(.text)
    ETH_GetFlushTransmitFIFOStatus           0x08007173   Thumb Code    20  stm32f4x7_eth.o(.text)
    ETH_GetDMAOverflowStatus                 0x08007187   Thumb Code    20  stm32f4x7_eth.o(.text)
    ETH_GetRxOverflowMissedFrameCounter      0x0800719b   Thumb Code    10  stm32f4x7_eth.o(.text)
    ETH_GetBufferUnavailableMissedFrameCounter 0x080071a5   Thumb Code     8  stm32f4x7_eth.o(.text)
    ETH_GetCurrentTxDescStartAddress         0x080071ad   Thumb Code     6  stm32f4x7_eth.o(.text)
    ETH_GetCurrentRxDescStartAddress         0x080071b3   Thumb Code     6  stm32f4x7_eth.o(.text)
    ETH_GetCurrentTxBufferAddress            0x080071b9   Thumb Code     6  stm32f4x7_eth.o(.text)
    ETH_GetCurrentRxBufferAddress            0x080071bf   Thumb Code     6  stm32f4x7_eth.o(.text)
    ETH_ResumeDMATransmission                0x080071c5   Thumb Code     8  stm32f4x7_eth.o(.text)
    ETH_ResumeDMAReception                   0x080071cd   Thumb Code     8  stm32f4x7_eth.o(.text)
    ETH_SetReceiveWatchdogTimer              0x080071d5   Thumb Code     6  stm32f4x7_eth.o(.text)
    ETH_PHYLoopBackCmd                       0x080071db   Thumb Code    52  stm32f4x7_eth.o(.text)
    ETH_ResetWakeUpFrameFilterRegisterPointer 0x0800720f   Thumb Code    14  stm32f4x7_eth.o(.text)
    ETH_SetWakeUpFrameFilterRegister         0x0800721d   Thumb Code    24  stm32f4x7_eth.o(.text)
    ETH_GlobalUnicastWakeUpCmd               0x08007235   Thumb Code    30  stm32f4x7_eth.o(.text)
    ETH_GetPMTFlagStatus                     0x08007253   Thumb Code    20  stm32f4x7_eth.o(.text)
    ETH_WakeUpFrameDetectionCmd              0x08007267   Thumb Code    30  stm32f4x7_eth.o(.text)
    ETH_MagicPacketDetectionCmd              0x08007285   Thumb Code    30  stm32f4x7_eth.o(.text)
    ETH_PowerDownCmd                         0x080072a3   Thumb Code    30  stm32f4x7_eth.o(.text)
    ETH_MMCCounterFullPreset                 0x080072c1   Thumb Code    16  stm32f4x7_eth.o(.text)
    ETH_MMCCounterHalfPreset                 0x080072d1   Thumb Code    30  stm32f4x7_eth.o(.text)
    ETH_MMCCounterFreezeCmd                  0x080072ef   Thumb Code    34  stm32f4x7_eth.o(.text)
    ETH_MMCResetOnReadCmd                    0x08007311   Thumb Code    34  stm32f4x7_eth.o(.text)
    ETH_MMCCounterRolloverCmd                0x08007333   Thumb Code    34  stm32f4x7_eth.o(.text)
    ETH_MMCCountersReset                     0x08007355   Thumb Code    16  stm32f4x7_eth.o(.text)
    ETH_MMCITConfig                          0x08007365   Thumb Code    78  stm32f4x7_eth.o(.text)
    ETH_GetMMCITStatus                       0x080073b3   Thumb Code    66  stm32f4x7_eth.o(.text)
    ETH_GetMMCRegister                       0x080073f5   Thumb Code     8  stm32f4x7_eth.o(.text)
    ETH_EnablePTPTimeStampAddend             0x080073fd   Thumb Code    14  stm32f4x7_eth.o(.text)
    ETH_EnablePTPTimeStampInterruptTrigger   0x0800740b   Thumb Code    14  stm32f4x7_eth.o(.text)
    ETH_EnablePTPTimeStampUpdate             0x08007419   Thumb Code    14  stm32f4x7_eth.o(.text)
    ETH_InitializePTPTimeStamp               0x08007427   Thumb Code    14  stm32f4x7_eth.o(.text)
    ETH_PTPUpdateMethodConfig                0x08007435   Thumb Code    30  stm32f4x7_eth.o(.text)
    ETH_PTPTimeStampCmd                      0x08007453   Thumb Code    32  stm32f4x7_eth.o(.text)
    ETH_GetPTPFlagStatus                     0x08007473   Thumb Code    20  stm32f4x7_eth.o(.text)
    ETH_SetPTPSubSecondIncrement             0x08007487   Thumb Code     8  stm32f4x7_eth.o(.text)
    ETH_SetPTPTimeStampUpdate                0x0800748f   Thumb Code    20  stm32f4x7_eth.o(.text)
    ETH_SetPTPTimeStampAddend                0x080074a3   Thumb Code     8  stm32f4x7_eth.o(.text)
    ETH_SetPTPTargetTime                     0x080074ab   Thumb Code    12  stm32f4x7_eth.o(.text)
    ETH_GetPTPRegister                       0x080074b7   Thumb Code     8  stm32f4x7_eth.o(.text)
    Reset_Handler                            0x080074d1   Thumb Code     8  startup_stm32f4xx.o(.text)
    ADC_IRQHandler                           0x080074eb   Thumb Code     0  startup_stm32f4xx.o(.text)
    CAN1_RX0_IRQHandler                      0x080074eb   Thumb Code     0  startup_stm32f4xx.o(.text)
    CAN1_RX1_IRQHandler                      0x080074eb   Thumb Code     0  startup_stm32f4xx.o(.text)
    CAN1_SCE_IRQHandler                      0x080074eb   Thumb Code     0  startup_stm32f4xx.o(.text)
    CAN1_TX_IRQHandler                       0x080074eb   Thumb Code     0  startup_stm32f4xx.o(.text)
    CAN2_RX0_IRQHandler                      0x080074eb   Thumb Code     0  startup_stm32f4xx.o(.text)
    CAN2_RX1_IRQHandler                      0x080074eb   Thumb Code     0  startup_stm32f4xx.o(.text)
    CAN2_SCE_IRQHandler                      0x080074eb   Thumb Code     0  startup_stm32f4xx.o(.text)
    CAN2_TX_IRQHandler                       0x080074eb   Thumb Code     0  startup_stm32f4xx.o(.text)
    CRYP_IRQHandler                          0x080074eb   Thumb Code     0  startup_stm32f4xx.o(.text)
    DCMI_IRQHandler                          0x080074eb   Thumb Code     0  startup_stm32f4xx.o(.text)
    DMA1_Stream0_IRQHandler                  0x080074eb   Thumb Code     0  startup_stm32f4xx.o(.text)
    DMA1_Stream1_IRQHandler                  0x080074eb   Thumb Code     0  startup_stm32f4xx.o(.text)
    DMA1_Stream2_IRQHandler                  0x080074eb   Thumb Code     0  startup_stm32f4xx.o(.text)
    DMA1_Stream3_IRQHandler                  0x080074eb   Thumb Code     0  startup_stm32f4xx.o(.text)
    DMA1_Stream4_IRQHandler                  0x080074eb   Thumb Code     0  startup_stm32f4xx.o(.text)
    DMA1_Stream5_IRQHandler                  0x080074eb   Thumb Code     0  startup_stm32f4xx.o(.text)
    DMA1_Stream6_IRQHandler                  0x080074eb   Thumb Code     0  startup_stm32f4xx.o(.text)
    DMA1_Stream7_IRQHandler                  0x080074eb   Thumb Code     0  startup_stm32f4xx.o(.text)
    DMA2_Stream1_IRQHandler                  0x080074eb   Thumb Code     0  startup_stm32f4xx.o(.text)
    DMA2_Stream2_IRQHandler                  0x080074eb   Thumb Code     0  startup_stm32f4xx.o(.text)
    DMA2_Stream3_IRQHandler                  0x080074eb   Thumb Code     0  startup_stm32f4xx.o(.text)
    DMA2_Stream4_IRQHandler                  0x080074eb   Thumb Code     0  startup_stm32f4xx.o(.text)
    DMA2_Stream5_IRQHandler                  0x080074eb   Thumb Code     0  startup_stm32f4xx.o(.text)
    DMA2_Stream6_IRQHandler                  0x080074eb   Thumb Code     0  startup_stm32f4xx.o(.text)
    DMA2_Stream7_IRQHandler                  0x080074eb   Thumb Code     0  startup_stm32f4xx.o(.text)
    ETH_WKUP_IRQHandler                      0x080074eb   Thumb Code     0  startup_stm32f4xx.o(.text)
    EXTI0_IRQHandler                         0x080074eb   Thumb Code     0  startup_stm32f4xx.o(.text)
    EXTI15_10_IRQHandler                     0x080074eb   Thumb Code     0  startup_stm32f4xx.o(.text)
    EXTI1_IRQHandler                         0x080074eb   Thumb Code     0  startup_stm32f4xx.o(.text)
    EXTI2_IRQHandler                         0x080074eb   Thumb Code     0  startup_stm32f4xx.o(.text)
    EXTI3_IRQHandler                         0x080074eb   Thumb Code     0  startup_stm32f4xx.o(.text)
    EXTI4_IRQHandler                         0x080074eb   Thumb Code     0  startup_stm32f4xx.o(.text)
    EXTI9_5_IRQHandler                       0x080074eb   Thumb Code     0  startup_stm32f4xx.o(.text)
    FLASH_IRQHandler                         0x080074eb   Thumb Code     0  startup_stm32f4xx.o(.text)
    FPU_IRQHandler                           0x080074eb   Thumb Code     0  startup_stm32f4xx.o(.text)
    FSMC_IRQHandler                          0x080074eb   Thumb Code     0  startup_stm32f4xx.o(.text)
    HASH_RNG_IRQHandler                      0x080074eb   Thumb Code     0  startup_stm32f4xx.o(.text)
    I2C1_ER_IRQHandler                       0x080074eb   Thumb Code     0  startup_stm32f4xx.o(.text)
    I2C1_EV_IRQHandler                       0x080074eb   Thumb Code     0  startup_stm32f4xx.o(.text)
    I2C2_ER_IRQHandler                       0x080074eb   Thumb Code     0  startup_stm32f4xx.o(.text)
    I2C2_EV_IRQHandler                       0x080074eb   Thumb Code     0  startup_stm32f4xx.o(.text)
    I2C3_ER_IRQHandler                       0x080074eb   Thumb Code     0  startup_stm32f4xx.o(.text)
    I2C3_EV_IRQHandler                       0x080074eb   Thumb Code     0  startup_stm32f4xx.o(.text)
    OTG_FS_IRQHandler                        0x080074eb   Thumb Code     0  startup_stm32f4xx.o(.text)
    OTG_FS_WKUP_IRQHandler                   0x080074eb   Thumb Code     0  startup_stm32f4xx.o(.text)
    OTG_HS_EP1_IN_IRQHandler                 0x080074eb   Thumb Code     0  startup_stm32f4xx.o(.text)
    OTG_HS_EP1_OUT_IRQHandler                0x080074eb   Thumb Code     0  startup_stm32f4xx.o(.text)
    OTG_HS_IRQHandler                        0x080074eb   Thumb Code     0  startup_stm32f4xx.o(.text)
    OTG_HS_WKUP_IRQHandler                   0x080074eb   Thumb Code     0  startup_stm32f4xx.o(.text)
    PVD_IRQHandler                           0x080074eb   Thumb Code     0  startup_stm32f4xx.o(.text)
    RCC_IRQHandler                           0x080074eb   Thumb Code     0  startup_stm32f4xx.o(.text)
    RTC_Alarm_IRQHandler                     0x080074eb   Thumb Code     0  startup_stm32f4xx.o(.text)
    RTC_WKUP_IRQHandler                      0x080074eb   Thumb Code     0  startup_stm32f4xx.o(.text)
    SDIO_IRQHandler                          0x080074eb   Thumb Code     0  startup_stm32f4xx.o(.text)
    SPI1_IRQHandler                          0x080074eb   Thumb Code     0  startup_stm32f4xx.o(.text)
    SPI2_IRQHandler                          0x080074eb   Thumb Code     0  startup_stm32f4xx.o(.text)
    SPI3_IRQHandler                          0x080074eb   Thumb Code     0  startup_stm32f4xx.o(.text)
    TAMP_STAMP_IRQHandler                    0x080074eb   Thumb Code     0  startup_stm32f4xx.o(.text)
    TIM1_BRK_TIM9_IRQHandler                 0x080074eb   Thumb Code     0  startup_stm32f4xx.o(.text)
    TIM1_CC_IRQHandler                       0x080074eb   Thumb Code     0  startup_stm32f4xx.o(.text)
    TIM1_TRG_COM_TIM11_IRQHandler            0x080074eb   Thumb Code     0  startup_stm32f4xx.o(.text)
    TIM1_UP_TIM10_IRQHandler                 0x080074eb   Thumb Code     0  startup_stm32f4xx.o(.text)
    TIM3_IRQHandler                          0x080074eb   Thumb Code     0  startup_stm32f4xx.o(.text)
    TIM4_IRQHandler                          0x080074eb   Thumb Code     0  startup_stm32f4xx.o(.text)
    TIM5_IRQHandler                          0x080074eb   Thumb Code     0  startup_stm32f4xx.o(.text)
    TIM6_DAC_IRQHandler                      0x080074eb   Thumb Code     0  startup_stm32f4xx.o(.text)
    TIM7_IRQHandler                          0x080074eb   Thumb Code     0  startup_stm32f4xx.o(.text)
    TIM8_BRK_TIM12_IRQHandler                0x080074eb   Thumb Code     0  startup_stm32f4xx.o(.text)
    TIM8_CC_IRQHandler                       0x080074eb   Thumb Code     0  startup_stm32f4xx.o(.text)
    TIM8_TRG_COM_TIM14_IRQHandler            0x080074eb   Thumb Code     0  startup_stm32f4xx.o(.text)
    TIM8_UP_TIM13_IRQHandler                 0x080074eb   Thumb Code     0  startup_stm32f4xx.o(.text)
    UART4_IRQHandler                         0x080074eb   Thumb Code     0  startup_stm32f4xx.o(.text)
    UART5_IRQHandler                         0x080074eb   Thumb Code     0  startup_stm32f4xx.o(.text)
    USART1_IRQHandler                        0x080074eb   Thumb Code     0  startup_stm32f4xx.o(.text)
    USART2_IRQHandler                        0x080074eb   Thumb Code     0  startup_stm32f4xx.o(.text)
    USART3_IRQHandler                        0x080074eb   Thumb Code     0  startup_stm32f4xx.o(.text)
    USART6_IRQHandler                        0x080074eb   Thumb Code     0  startup_stm32f4xx.o(.text)
    WWDG_IRQHandler                          0x080074eb   Thumb Code     0  startup_stm32f4xx.o(.text)
    MAC_Init                                 0x080074f5   Thumb Code    64  netconf.o(.text)
    ETH_PTPSubSecond2NanoSecond              0x08007541   Thumb Code    22  ethernetif.o(.text)
    ETH_PTPNanoSecond2SubSecond              0x08007557   Thumb Code    32  ethernetif.o(.text)
    ETH_PTPTime_GetTime                      0x08007577   Thumb Code    32  ethernetif.o(.text)
    copy_buffer                              0x08007597   Thumb Code    30  ethernetif.o(.text)
    ethernetif_input_test                    0x08007755   Thumb Code    30  ethernetif.o(.text)
    low_level_init_test                      0x080077c3   Thumb Code   156  ethernetif.o(.text)
    low_level_output                         0x0800785f   Thumb Code    96  ethernetif.o(.text)
    new_low_level_output                     0x080078bf   Thumb Code    92  ethernetif.o(.text)
    Convert32                                0x0800791b   Thumb Code    90  ethernetif.o(.text)
    Convert16                                0x08007975   Thumb Code    12  ethernetif.o(.text)
    new_send_something                       0x08007981   Thumb Code   480  ethernetif.o(.text)
    ETH_PTPTime_AdjFreq                      0x08007b61   Thumb Code    80  ethernetif.o(.text)
    ETH_PTPTime_UpdateOffset                 0x08007bb1   Thumb Code   124  ethernetif.o(.text)
    ETH_PTPTime_SetTime                      0x08007c2d   Thumb Code    80  ethernetif.o(.text)
    pbuf_free                                0x08007c95   Thumb Code   126  pbuf.o(.text)
    pbuf_alloc                               0x08007d13   Thumb Code   424  pbuf.o(.text)
    pbuf_realloc                             0x08007ebb   Thumb Code   120  pbuf.o(.text)
    pbuf_header                              0x08007f33   Thumb Code   134  pbuf.o(.text)
    pbuf_clen                                0x08007fb9   Thumb Code    18  pbuf.o(.text)
    pbuf_ref                                 0x08007fcb   Thumb Code    10  pbuf.o(.text)
    pbuf_cat                                 0x08007fd5   Thumb Code    56  pbuf.o(.text)
    pbuf_chain                               0x0800800d   Thumb Code    26  pbuf.o(.text)
    pbuf_dechain                             0x08008027   Thumb Code    66  pbuf.o(.text)
    pbuf_copy                                0x08008069   Thumb Code   200  pbuf.o(.text)
    pbuf_copy_partial                        0x08008131   Thumb Code   146  pbuf.o(.text)
    pbuf_take                                0x080081c3   Thumb Code   116  pbuf.o(.text)
    pbuf_coalesce                            0x08008237   Thumb Code    60  pbuf.o(.text)
    pbuf_get_at                              0x08008273   Thumb Code    46  pbuf.o(.text)
    pbuf_memcmp                              0x080082a1   Thumb Code    96  pbuf.o(.text)
    pbuf_memfind                             0x08008301   Thumb Code    76  pbuf.o(.text)
    pbuf_strstr                              0x0800834d   Thumb Code    60  pbuf.o(.text)
    memp_init                                0x08008389   Thumb Code    82  memp.o(.text)
    memp_malloc                              0x080083db   Thumb Code    44  memp.o(.text)
    memp_free                                0x08008407   Thumb Code    28  memp.o(.text)
    mem_init                                 0x080084b1   Thumb Code    86  mem.o(.text)
    mem_free                                 0x08008507   Thumb Code    88  mem.o(.text)
    mem_trim                                 0x0800855f   Thumb Code   268  mem.o(.text)
    mem_malloc                               0x0800866b   Thumb Code   256  mem.o(.text)
    mem_calloc                               0x0800876b   Thumb Code    34  mem.o(.text)
    sys_mbox_new                             0x080087a1   Thumb Code    58  sys_arch.o(.text)
    sys_mbox_free                            0x080087db   Thumb Code    30  sys_arch.o(.text)
    sys_mbox_post                            0x080087f9   Thumb Code    28  sys_arch.o(.text)
    sys_mbox_trypost                         0x08008815   Thumb Code    30  sys_arch.o(.text)
    sys_arch_mbox_fetch                      0x08008833   Thumb Code    60  sys_arch.o(.text)
    sys_arch_mbox_tryfetch                   0x0800886f   Thumb Code    38  sys_arch.o(.text)
    sys_sem_new                              0x08008895   Thumb Code    42  sys_arch.o(.text)
    sys_arch_sem_wait                        0x080088bf   Thumb Code    48  sys_arch.o(.text)
    sys_sem_signal                           0x080088ef   Thumb Code    18  sys_arch.o(.text)
    sys_sem_free                             0x08008901   Thumb Code     2  sys_arch.o(.text)
    sys_timer_new                            0x08008903   Thumb Code    58  sys_arch.o(.text)
    sys_timer_start                          0x0800893d   Thumb Code    24  sys_arch.o(.text)
    sys_timer_stop                           0x08008955   Thumb Code    20  sys_arch.o(.text)
    sys_timer_free                           0x08008969   Thumb Code     2  sys_arch.o(.text)
    sys_mutex_new                            0x0800896b   Thumb Code    46  sys_arch.o(.text)
    my_sys_mutex_lock                        0x08008999   Thumb Code    28  sys_arch.o(.text)
    my_sys_mutex_unlock                      0x080089b5   Thumb Code    20  sys_arch.o(.text)
    sys_mutex_lock                           0x080089c9   Thumb Code    24  sys_arch.o(.text)
    sys_mutex_unlock                         0x080089e1   Thumb Code    20  sys_arch.o(.text)
    sys_mutex_free                           0x080089f5   Thumb Code     2  sys_arch.o(.text)
    sys_init                                 0x080089f7   Thumb Code    26  sys_arch.o(.text)
    sys_arch_protect                         0x08008a11   Thumb Code    26  sys_arch.o(.text)
    sys_arch_unprotect                       0x08008a2b   Thumb Code    22  sys_arch.o(.text)
    sys_now                                  0x08008a41   Thumb Code     8  sys_arch.o(.text)
    sys_thread_new                           0x08008a49   Thumb Code    98  sys_arch.o(.text)
    assert_printf                            0x08008aab   Thumb Code    32  sys_arch.o(.text)
    ptpd_alert                               0x08008d35   Thumb Code    12  ptpd.o(.text)
    ptpd_init                                0x08008d41   Thumb Code    36  ptpd.o(.text)
    toState                                  0x08008dc9   Thumb Code   768  protocol.o(.text)
    copy_PTP_buffer                          0x080098ef   Thumb Code    54  protocol.o(.text)
    doState                                  0x08009bbb   Thumb Code   594  protocol.o(.text)
    netMACCheck                              0x08009f3b   Thumb Code    40  net.o(.text)
    netMACShutdown                           0x08009f8b   Thumb Code     4  net.o(.text)
    netMACif_set_default                     0x08009f8f   Thumb Code     6  net.o(.text)
    netMACInit                               0x0800a00d   Thumb Code    50  net.o(.text)
    netSelect                                0x0800a03f   Thumb Code    34  net.o(.text)
    netEmptyEventQ                           0x0800a061   Thumb Code    14  net.o(.text)
    netRecvEvent                             0x0800a0e9   Thumb Code    22  net.o(.text)
    netRecvGeneral                           0x0800a0ff   Thumb Code    22  net.o(.text)
    netSendEvent                             0x0800a163   Thumb Code    28  net.o(.text)
    netSendGeneral                           0x0800a17f   Thumb Code    26  net.o(.text)
    netSendPeerGeneral                       0x0800a199   Thumb Code    26  net.o(.text)
    netSendPeerEvent                         0x0800a1b3   Thumb Code    28  net.o(.text)
    ptpdShutdown                             0x0800a1e5   Thumb Code    14  startup.o(.text)
    ptpdStartup                              0x0800a1f3   Thumb Code    58  startup.o(.text)
    EUI48toEUI64                             0x0800a22d   Thumb Code    34  bmc.o(.text)
    initData                                 0x0800a24f   Thumb Code   206  bmc.o(.text)
    isSamePortIdentity                       0x0800a31d   Thumb Code    38  bmc.o(.text)
    addForeign                               0x0800a343   Thumb Code   342  bmc.o(.text)
    m1                                       0x0800a499   Thumb Code   114  bmc.o(.text)
    p1                                       0x0800a50b   Thumb Code     2  bmc.o(.text)
    s1                                       0x0800a50d   Thumb Code   186  bmc.o(.text)
    copyD0                                   0x0800a5c7   Thumb Code    56  bmc.o(.text)
    bmcDataSetComparison                     0x0800a5ff   Thumb Code   376  bmc.o(.text)
    bmcStateDecision                         0x0800a777   Thumb Code   116  bmc.o(.text)
    bmc                                      0x0800a7eb   Thumb Code   154  bmc.o(.text)
    scaledNanosecondsToInternalTime          0x0800a885   Thumb Code    88  arith.o(.text)
    fromInternalTime                         0x0800a8dd   Thumb Code    34  arith.o(.text)
    toInternalTime                           0x0800a8ff   Thumb Code    26  arith.o(.text)
    normalizeTime                            0x0800a919   Thumb Code    90  arith.o(.text)
    addTime                                  0x0800a973   Thumb Code    32  arith.o(.text)
    subTime                                  0x0800a993   Thumb Code    32  arith.o(.text)
    div2Time                                 0x0800a9b3   Thumb Code    56  arith.o(.text)
    floorLog2                                0x0800a9eb   Thumb Code    54  arith.o(.text)
    initTimer                                0x0800aa3f   Thumb Code    36  timer.o(.text)
    timerStop                                0x0800aa63   Thumb Code    38  timer.o(.text)
    timerStart                               0x0800aa89   Thumb Code    34  timer.o(.text)
    timerExpired                             0x0800aaab   Thumb Code    30  timer.o(.text)
    displayStats                             0x0800aaf1   Thumb Code   270  sys_time.o(.text)
    getTime                                  0x0800abff   Thumb Code    20  sys_time.o(.text)
    setTime                                  0x0800ac13   Thumb Code    20  sys_time.o(.text)
    updateTime                               0x0800ac27   Thumb Code    24  sys_time.o(.text)
    getRand                                  0x0800ac3f   Thumb Code    18  sys_time.o(.text)
    adjFreq                                  0x0800ac51   Thumb Code    34  sys_time.o(.text)
    initClock                                0x0800ad71   Thumb Code   216  servo.o(.text)
    updateOffset                             0x0800af0d   Thumb Code   222  servo.o(.text)
    updateDelay                              0x0800afeb   Thumb Code    92  servo.o(.text)
    updatePeerDelay                          0x0800b047   Thumb Code   110  servo.o(.text)
    updateClock                              0x0800b0b5   Thumb Code   250  servo.o(.text)
    msgUnpackHeader                          0x0800b1cd   Thumb Code   146  msg.o(.text)
    msgPackHeader                            0x0800b25f   Thumb Code    64  msg.o(.text)
    msgPackAnnounce                          0x0800b29f   Thumb Code   150  msg.o(.text)
    msgUnpackAnnounce                        0x0800b335   Thumb Code   116  msg.o(.text)
    msgPackSync                              0x0800b3a9   Thumb Code    92  msg.o(.text)
    msgUnpackSync                            0x0800b405   Thumb Code    34  msg.o(.text)
    msgPackDelayReq                          0x0800b427   Thumb Code    94  msg.o(.text)
    msgUnpackDelayReq                        0x0800b485   Thumb Code    34  msg.o(.text)
    msgPackFollowUp                          0x0800b4a7   Thumb Code    92  msg.o(.text)
    msgUnpackFollowUp                        0x0800b503   Thumb Code    34  msg.o(.text)
    msgPackDelayResp                         0x0800b525   Thumb Code   136  msg.o(.text)
    msgUnpackDelayResp                       0x0800b5ad   Thumb Code    54  msg.o(.text)
    msgPackPDelayReq                         0x0800b5e3   Thumb Code   102  msg.o(.text)
    msgUnpackPDelayReq                       0x0800b649   Thumb Code    34  msg.o(.text)
    msgPackPDelayResp                        0x0800b66b   Thumb Code   112  msg.o(.text)
    msgUnpackPDelayResp                      0x0800b6db   Thumb Code    54  msg.o(.text)
    msgPackPDelayRespFollowUp                0x0800b711   Thumb Code   122  msg.o(.text)
    msgUnpackPDelayRespFollowUp              0x0800b78b   Thumb Code    54  msg.o(.text)
    lwip_htons                               0x0800b7c1   Thumb Code    12  def.o(.text)
    lwip_ntohs                               0x0800b7cd   Thumb Code    12  def.o(.text)
    lwip_htonl                               0x0800b7d9   Thumb Code    26  def.o(.text)
    lwip_ntohl                               0x0800b7f3   Thumb Code    12  def.o(.text)
    APP_Initialize                           0x0800b801   Thumb Code   110  app.o(.text)
    APP_CANFDSPI_Init                        0x0800b86f   Thumb Code   328  app.o(.text)
    APP_TransmitMessageQueue                 0x0800b9b7   Thumb Code    88  app.o(.text)
    APP_TransmitSwitchState                  0x0800ba0f   Thumb Code   166  app.o(.text)
    DRV_CANFDSPI_Reset                       0x0800baf1   Thumb Code    32  drv_canfdspi_api.o(.text)
    DRV_CANFDSPI_ReadByte                    0x0800bb11   Thumb Code    56  drv_canfdspi_api.o(.text)
    DRV_CANFDSPI_WriteByte                   0x0800bb49   Thumb Code    50  drv_canfdspi_api.o(.text)
    DRV_CANFDSPI_ReadWord                    0x0800bb7b   Thumb Code    92  drv_canfdspi_api.o(.text)
    DRV_CANFDSPI_WriteWord                   0x0800bbd7   Thumb Code    76  drv_canfdspi_api.o(.text)
    DRV_CANFDSPI_ReadHalfWord                0x0800bc23   Thumb Code    92  drv_canfdspi_api.o(.text)
    DRV_CANFDSPI_WriteHalfWord               0x0800bc7f   Thumb Code    76  drv_canfdspi_api.o(.text)
    DRV_CANFDSPI_CalculateCRC16              0x0800bccb   Thumb Code    58  drv_canfdspi_api.o(.text)
    DRV_CANFDSPI_WriteByteSafe               0x0800bd05   Thumb Code    68  drv_canfdspi_api.o(.text)
    DRV_CANFDSPI_WriteWordSafe               0x0800bd49   Thumb Code    92  drv_canfdspi_api.o(.text)
    DRV_CANFDSPI_ReadByteArray               0x0800bda5   Thumb Code    92  drv_canfdspi_api.o(.text)
    DRV_CANFDSPI_ReadByteArrayWithCRC        0x0800be01   Thumb Code   206  drv_canfdspi_api.o(.text)
    DRV_CANFDSPI_WriteByteArray              0x0800becf   Thumb Code    86  drv_canfdspi_api.o(.text)
    DRV_CANFDSPI_WriteByteArrayWithCRC       0x0800bf25   Thumb Code   128  drv_canfdspi_api.o(.text)
    DRV_CANFDSPI_ReadWordArray               0x0800bfa5   Thumb Code   144  drv_canfdspi_api.o(.text)
    DRV_CANFDSPI_WriteWordArray              0x0800c035   Thumb Code   110  drv_canfdspi_api.o(.text)
    DRV_CANFDSPI_Configure                   0x0800c0a3   Thumb Code   180  drv_canfdspi_api.o(.text)
    DRV_CANFDSPI_ConfigureObjectReset        0x0800c157   Thumb Code   156  drv_canfdspi_api.o(.text)
    DRV_CANFDSPI_OperationModeSelect         0x0800c1f3   Thumb Code    76  drv_canfdspi_api.o(.text)
    DRV_CANFDSPI_OperationModeGet            0x0800c23f   Thumb Code   100  drv_canfdspi_api.o(.text)
    DRV_CANFDSPI_LowPowerModeEnable          0x0800c2a3   Thumb Code    12  drv_canfdspi_api.o(.text)
    DRV_CANFDSPI_LowPowerModeDisable         0x0800c2af   Thumb Code    12  drv_canfdspi_api.o(.text)
    DRV_CANFDSPI_TransmitChannelConfigure    0x0800c2bb   Thumb Code   134  drv_canfdspi_api.o(.text)
    DRV_CANFDSPI_TransmitChannelConfigureObjectReset 0x0800c341   Thumb Code    74  drv_canfdspi_api.o(.text)
    DRV_CANFDSPI_TransmitQueueConfigure      0x0800c38b   Thumb Code    90  drv_canfdspi_api.o(.text)
    DRV_CANFDSPI_TransmitQueueConfigureObjectReset 0x0800c3e5   Thumb Code    62  drv_canfdspi_api.o(.text)
    DRV_CANFDSPI_TransmitChannelUpdate       0x0800c423   Thumb Code    84  drv_canfdspi_api.o(.text)
    DRV_CANFDSPI_DlcToDataBytes              0x0800c477   Thumb Code    70  drv_canfdspi_api.o(.text)
    DRV_CANFDSPI_TransmitChannelLoad         0x0800c4bd   Thumb Code   294  drv_canfdspi_api.o(.text)
    DRV_CANFDSPI_TransmitChannelFlush        0x0800c5e3   Thumb Code    48  drv_canfdspi_api.o(.text)
    DRV_CANFDSPI_TransmitChannelStatusGet    0x0800c613   Thumb Code    88  drv_canfdspi_api.o(.text)
    DRV_CANFDSPI_ReceiveChannelReset         0x0800c66b   Thumb Code    56  drv_canfdspi_api.o(.text)
    DRV_CANFDSPI_TransmitChannelReset        0x0800c6a3   Thumb Code    16  drv_canfdspi_api.o(.text)
    DRV_CANFDSPI_TransmitRequestSet          0x0800c6b3   Thumb Code    30  drv_canfdspi_api.o(.text)
    DRV_CANFDSPI_TransmitRequestGet          0x0800c6d1   Thumb Code    24  drv_canfdspi_api.o(.text)
    DRV_CANFDSPI_TransmitChannelAbort        0x0800c6e9   Thumb Code    46  drv_canfdspi_api.o(.text)
    DRV_CANFDSPI_TransmitAbortAll            0x0800c717   Thumb Code    66  drv_canfdspi_api.o(.text)
    DRV_CANFDSPI_TransmitBandWidthSharingSet 0x0800c759   Thumb Code    80  drv_canfdspi_api.o(.text)
    DRV_CANFDSPI_FilterObjectConfigure       0x0800c7a9   Thumb Code    48  drv_canfdspi_api.o(.text)
    DRV_CANFDSPI_FilterMaskConfigure         0x0800c7d9   Thumb Code    48  drv_canfdspi_api.o(.text)
    DRV_CANFDSPI_FilterToFifoLink            0x0800c809   Thumb Code    70  drv_canfdspi_api.o(.text)
    DRV_CANFDSPI_FilterEnable                0x0800c84f   Thumb Code    68  drv_canfdspi_api.o(.text)
    DRV_CANFDSPI_FilterDisable               0x0800c893   Thumb Code    66  drv_canfdspi_api.o(.text)
    DRV_CANFDSPI_DeviceNetFilterCountSet     0x0800c8d5   Thumb Code    76  drv_canfdspi_api.o(.text)
    DRV_CANFDSPI_ReceiveChannelConfigure     0x0800c921   Thumb Code    98  drv_canfdspi_api.o(.text)
    DRV_CANFDSPI_ReceiveChannelConfigureObjectReset 0x0800c983   Thumb Code    50  drv_canfdspi_api.o(.text)
    DRV_CANFDSPI_ReceiveChannelStatusGet     0x0800c9b5   Thumb Code    62  drv_canfdspi_api.o(.text)
    DRV_CANFDSPI_ReceiveChannelUpdate        0x0800c9f3   Thumb Code    56  drv_canfdspi_api.o(.text)
    DRV_CANFDSPI_ReceiveMessageGet           0x0800ca2b   Thumb Code   364  drv_canfdspi_api.o(.text)
    DRV_CANFDSPI_TefStatusGet                0x0800cb97   Thumb Code    50  drv_canfdspi_api.o(.text)
    DRV_CANFDSPI_TefUpdate                   0x0800cbc9   Thumb Code    44  drv_canfdspi_api.o(.text)
    DRV_CANFDSPI_TefMessageGet               0x0800cbf5   Thumb Code   242  drv_canfdspi_api.o(.text)
    DRV_CANFDSPI_TefReset                    0x0800cce7   Thumb Code    44  drv_canfdspi_api.o(.text)
    DRV_CANFDSPI_TefConfigure                0x0800cd13   Thumb Code    64  drv_canfdspi_api.o(.text)
    DRV_CANFDSPI_TefConfigureObjectReset     0x0800cd53   Thumb Code    38  drv_canfdspi_api.o(.text)
    DRV_CANFDSPI_ModuleEventGet              0x0800cd79   Thumb Code    50  drv_canfdspi_api.o(.text)
    DRV_CANFDSPI_ModuleEventEnable           0x0800cdab   Thumb Code    80  drv_canfdspi_api.o(.text)
    DRV_CANFDSPI_ModuleEventDisable          0x0800cdfb   Thumb Code    80  drv_canfdspi_api.o(.text)
    DRV_CANFDSPI_ModuleEventClear            0x0800ce4b   Thumb Code    62  drv_canfdspi_api.o(.text)
    DRV_CANFDSPI_ModuleEventRxCodeGet        0x0800ce89   Thumb Code    68  drv_canfdspi_api.o(.text)
    DRV_CANFDSPI_ModuleEventTxCodeGet        0x0800cecd   Thumb Code    68  drv_canfdspi_api.o(.text)
    DRV_CANFDSPI_ModuleEventFilterHitGet     0x0800cf11   Thumb Code    46  drv_canfdspi_api.o(.text)
    DRV_CANFDSPI_ModuleEventIcodeGet         0x0800cf3f   Thumb Code    76  drv_canfdspi_api.o(.text)
    DRV_CANFDSPI_TransmitChannelEventGet     0x0800cf8b   Thumb Code    64  drv_canfdspi_api.o(.text)
    DRV_CANFDSPI_TransmitEventGet            0x0800cfcb   Thumb Code    24  drv_canfdspi_api.o(.text)
    DRV_CANFDSPI_TransmitEventAttemptGet     0x0800cfe3   Thumb Code    24  drv_canfdspi_api.o(.text)
    DRV_CANFDSPI_TransmitChannelIndexGet     0x0800cffb   Thumb Code    62  drv_canfdspi_api.o(.text)
    DRV_CANFDSPI_TransmitChannelEventEnable  0x0800d039   Thumb Code    90  drv_canfdspi_api.o(.text)
    DRV_CANFDSPI_TransmitChannelEventDisable 0x0800d093   Thumb Code    90  drv_canfdspi_api.o(.text)
    DRV_CANFDSPI_TransmitChannelEventAttemptClear 0x0800d0ed   Thumb Code    88  drv_canfdspi_api.o(.text)
    DRV_CANFDSPI_ReceiveChannelEventGet      0x0800d145   Thumb Code    72  drv_canfdspi_api.o(.text)
    DRV_CANFDSPI_ReceiveEventGet             0x0800d18d   Thumb Code    24  drv_canfdspi_api.o(.text)
    DRV_CANFDSPI_ReceiveEventOverflowGet     0x0800d1a5   Thumb Code    24  drv_canfdspi_api.o(.text)
    DRV_CANFDSPI_ReceiveChannelIndexGet      0x0800d1bd   Thumb Code    20  drv_canfdspi_api.o(.text)
    DRV_CANFDSPI_ReceiveChannelEventEnable   0x0800d1d1   Thumb Code    98  drv_canfdspi_api.o(.text)
    DRV_CANFDSPI_ReceiveChannelEventDisable  0x0800d233   Thumb Code    98  drv_canfdspi_api.o(.text)
    DRV_CANFDSPI_ReceiveChannelEventOverflowClear 0x0800d295   Thumb Code    90  drv_canfdspi_api.o(.text)
    DRV_CANFDSPI_TefEventGet                 0x0800d2ef   Thumb Code    50  drv_canfdspi_api.o(.text)
    DRV_CANFDSPI_TefEventEnable              0x0800d321   Thumb Code    76  drv_canfdspi_api.o(.text)
    DRV_CANFDSPI_TefEventDisable             0x0800d36d   Thumb Code    76  drv_canfdspi_api.o(.text)
    DRV_CANFDSPI_TefEventOverflowClear       0x0800d3b9   Thumb Code    72  drv_canfdspi_api.o(.text)
    DRV_CANFDSPI_ErrorCountTransmitGet       0x0800d401   Thumb Code    32  drv_canfdspi_api.o(.text)
    DRV_CANFDSPI_ErrorCountReceiveGet        0x0800d421   Thumb Code    32  drv_canfdspi_api.o(.text)
    DRV_CANFDSPI_ErrorStateGet               0x0800d441   Thumb Code    50  drv_canfdspi_api.o(.text)
    DRV_CANFDSPI_ErrorCountStateGet          0x0800d473   Thumb Code    72  drv_canfdspi_api.o(.text)
    DRV_CANFDSPI_BusDiagnosticsGet           0x0800d4bb   Thumb Code    72  drv_canfdspi_api.o(.text)
    DRV_CANFDSPI_BusDiagnosticsClear         0x0800d503   Thumb Code    34  drv_canfdspi_api.o(.text)
    DRV_CANFDSPI_EccEnable                   0x0800d525   Thumb Code    70  drv_canfdspi_api.o(.text)
    DRV_CANFDSPI_EccDisable                  0x0800d56b   Thumb Code    70  drv_canfdspi_api.o(.text)
    DRV_CANFDSPI_EccEventGet                 0x0800d5b1   Thumb Code    52  drv_canfdspi_api.o(.text)
    DRV_CANFDSPI_EccParitySet                0x0800d5e5   Thumb Code    26  drv_canfdspi_api.o(.text)
    DRV_CANFDSPI_EccParityGet                0x0800d5ff   Thumb Code    26  drv_canfdspi_api.o(.text)
    DRV_CANFDSPI_EccErrorAddressGet          0x0800d619   Thumb Code    42  drv_canfdspi_api.o(.text)
    DRV_CANFDSPI_EccEventEnable              0x0800d643   Thumb Code    76  drv_canfdspi_api.o(.text)
    DRV_CANFDSPI_EccEventDisable             0x0800d68f   Thumb Code    76  drv_canfdspi_api.o(.text)
    DRV_CANFDSPI_EccEventClear               0x0800d6db   Thumb Code    76  drv_canfdspi_api.o(.text)
    DRV_CANFDSPI_CrcEventEnable              0x0800d727   Thumb Code    72  drv_canfdspi_api.o(.text)
    DRV_CANFDSPI_CrcEventDisable             0x0800d76f   Thumb Code    72  drv_canfdspi_api.o(.text)
    DRV_CANFDSPI_CrcEventClear               0x0800d7b7   Thumb Code    72  drv_canfdspi_api.o(.text)
    DRV_CANFDSPI_CrcEventGet                 0x0800d7ff   Thumb Code    48  drv_canfdspi_api.o(.text)
    DRV_CANFDSPI_CrcValueGet                 0x0800d82f   Thumb Code    26  drv_canfdspi_api.o(.text)
    DRV_CANFDSPI_RamInit                     0x0800d849   Thumb Code    76  drv_canfdspi_api.o(.text)
    DRV_CANFDSPI_TimeStampEnable             0x0800d895   Thumb Code    66  drv_canfdspi_api.o(.text)
    DRV_CANFDSPI_TimeStampDisable            0x0800d8d7   Thumb Code    66  drv_canfdspi_api.o(.text)
    DRV_CANFDSPI_TimeStampGet                0x0800d919   Thumb Code    24  drv_canfdspi_api.o(.text)
    DRV_CANFDSPI_TimeStampSet                0x0800d931   Thumb Code    24  drv_canfdspi_api.o(.text)
    DRV_CANFDSPI_TimeStampModeConfigure      0x0800d949   Thumb Code    80  drv_canfdspi_api.o(.text)
    DRV_CANFDSPI_TimeStampPrescalerSet       0x0800d999   Thumb Code    24  drv_canfdspi_api.o(.text)
    DRV_CANFDSPI_OscillatorEnable            0x0800d9b1   Thumb Code    70  drv_canfdspi_api.o(.text)
    DRV_CANFDSPI_OscillatorControlSet        0x0800d9f7   Thumb Code    78  drv_canfdspi_api.o(.text)
    DRV_CANFDSPI_OscillatorControlObjectReset 0x0800da45   Thumb Code    60  drv_canfdspi_api.o(.text)
    DRV_CANFDSPI_OscillatorStatusGet         0x0800da81   Thumb Code    80  drv_canfdspi_api.o(.text)
    DRV_CANFDSPI_BitTimeConfigureData10MHz   0x0800dad1   Thumb Code   540  drv_canfdspi_api.o(.text)
    DRV_CANFDSPI_BitTimeConfigureNominal10MHz 0x0800dced   Thumb Code   276  drv_canfdspi_api.o(.text)
    DRV_CANFDSPI_BitTimeConfigureData20MHz   0x0800de01   Thumb Code   798  drv_canfdspi_api.o(.text)
    DRV_CANFDSPI_BitTimeConfigureNominal20MHz 0x0800e11f   Thumb Code   276  drv_canfdspi_api.o(.text)
    DRV_CANFDSPI_BitTimeConfigureData40MHz   0x0800e233   Thumb Code  1116  drv_canfdspi_api.o(.text)
    DRV_CANFDSPI_BitTimeConfigureNominal40MHz 0x0800e68f   Thumb Code   270  drv_canfdspi_api.o(.text)
    DRV_CANFDSPI_BitTimeConfigure            0x0800e79d   Thumb Code   130  drv_canfdspi_api.o(.text)
    DRV_CANFDSPI_GpioModeConfigure           0x0800e81f   Thumb Code    88  drv_canfdspi_api.o(.text)
    DRV_CANFDSPI_GpioDirectionConfigure      0x0800e877   Thumb Code    86  drv_canfdspi_api.o(.text)
    DRV_CANFDSPI_GpioStandbyControlEnable    0x0800e8cd   Thumb Code    72  drv_canfdspi_api.o(.text)
    DRV_CANFDSPI_GpioStandbyControlDisable   0x0800e915   Thumb Code    70  drv_canfdspi_api.o(.text)
    DRV_CANFDSPI_GpioInterruptPinsOpenDrainConfigure 0x0800e95b   Thumb Code    74  drv_canfdspi_api.o(.text)
    DRV_CANFDSPI_GpioTransmitPinOpenDrainConfigure 0x0800e9a5   Thumb Code    74  drv_canfdspi_api.o(.text)
    DRV_CANFDSPI_GpioPinSet                  0x0800e9ef   Thumb Code   108  drv_canfdspi_api.o(.text)
    DRV_CANFDSPI_GpioPinRead                 0x0800ea5b   Thumb Code    90  drv_canfdspi_api.o(.text)
    DRV_CANFDSPI_GpioClockOutputConfigure    0x0800eab5   Thumb Code    74  drv_canfdspi_api.o(.text)
    DRV_CANFDSPI_FifoIndexGet                0x0800eaff   Thumb Code    68  drv_canfdspi_api.o(.text)
    DRV_CANFDSPI_DataBytesToDlc              0x0800eb43   Thumb Code    76  drv_canfdspi_api.o(.text)
    DRV_SPI_Initialize                       0x0800eb8f   Thumb Code     8  drv_spi.o(.text)
    DRV_SPI_TransferData                     0x0800eb97   Thumb Code    26  drv_spi.o(.text)
    __aeabi_uldivmod                         0x0800ebb1   Thumb Code    98  uldiv.o(.text)
    __aeabi_ldivmod                          0x0800ec13   Thumb Code    98  ldiv.o(.text)
    __aeabi_llsl                             0x0800ec75   Thumb Code    30  llshl.o(.text)
    _ll_shift_l                              0x0800ec75   Thumb Code     0  llshl.o(.text)
    rand                                     0x0800ec95   Thumb Code    20  rand.o(.text)
    srand                                    0x0800eca9   Thumb Code     6  rand.o(.text)
    __aeabi_memcpy                           0x0800ecb9   Thumb Code    36  memcpya.o(.text)
    __aeabi_memcpy4                          0x0800ecb9   Thumb Code     0  memcpya.o(.text)
    __aeabi_memcpy8                          0x0800ecb9   Thumb Code     0  memcpya.o(.text)
    __aeabi_memset                           0x0800ecdd   Thumb Code    14  memseta.o(.text)
    __aeabi_memset4                          0x0800ecdd   Thumb Code     0  memseta.o(.text)
    __aeabi_memset8                          0x0800ecdd   Thumb Code     0  memseta.o(.text)
    __aeabi_memclr                           0x0800eceb   Thumb Code     4  memseta.o(.text)
    __aeabi_memclr4                          0x0800eceb   Thumb Code     0  memseta.o(.text)
    __aeabi_memclr8                          0x0800eceb   Thumb Code     0  memseta.o(.text)
    _memset$wrapper                          0x0800ecef   Thumb Code    18  memseta.o(.text)
    strlen                                   0x0800ed01   Thumb Code    14  strlen.o(.text)
    memcmp                                   0x0800ed0f   Thumb Code    26  memcmp.o(.text)
    __aeabi_llsr                             0x0800ed29   Thumb Code    32  llushr.o(.text)
    _ll_ushift_r                             0x0800ed29   Thumb Code     0  llushr.o(.text)
    __scatterload                            0x0800ed49   Thumb Code    28  init.o(.text)
    __scatterload_rt2                        0x0800ed49   Thumb Code     0  init.o(.text)
    __decompress                             0x0800ed6d   Thumb Code     0  __dczerorl2.o(.text)
    __decompress1                            0x0800ed6d   Thumb Code    86  __dczerorl2.o(.text)
    SVC_Count                                0x0800edc4   Data           4  svc_table.o(SVC_TABLE)
    SVC_Table                                0x0800edc8   Data           0  svc_table.o(SVC_TABLE)
    __0printf$8                              0x0800edc9   Thumb Code    22  printf8.o(i.__0printf$8)
    __1printf$8                              0x0800edc9   Thumb Code     0  printf8.o(i.__0printf$8)
    __2printf                                0x0800edc9   Thumb Code     0  printf8.o(i.__0printf$8)
    __scatterload_copy                       0x0800ede9   Thumb Code    14  handlers.o(i.__scatterload_copy)
    __scatterload_null                       0x0800edf7   Thumb Code     2  handlers.o(i.__scatterload_null)
    __scatterload_zeroinit                   0x0800edf9   Thumb Code    14  handlers.o(i.__scatterload_zeroinit)
    spi_master_init                          0x0800f26d   Thumb Code   224  drv_spi.o(i.spi_master_init)
    spi_master_transfer                      0x0800f359   Thumb Code    88  drv_spi.o(i.spi_master_transfer)
    os_maxtaskrun                            0x0800f3b8   Data           2  rtx_conf_cm.o(.constdata)
    os_stackinfo                             0x0800f3bc   Data           4  rtx_conf_cm.o(.constdata)
    os_rrobin                                0x0800f3c0   Data           4  rtx_conf_cm.o(.constdata)
    os_tickfreq                              0x0800f3c4   Data           4  rtx_conf_cm.o(.constdata)
    os_tickus_i                              0x0800f3c8   Data           2  rtx_conf_cm.o(.constdata)
    os_tickus_f                              0x0800f3ca   Data           2  rtx_conf_cm.o(.constdata)
    os_trv                                   0x0800f3cc   Data           4  rtx_conf_cm.o(.constdata)
    os_flags                                 0x0800f3d0   Data           1  rtx_conf_cm.o(.constdata)
    CMSIS_RTOS_API_Version                   0x0800f3d4   Data           4  rtx_conf_cm.o(.constdata)
    CMSIS_RTOS_RTX_Version                   0x0800f3d8   Data           4  rtx_conf_cm.o(.constdata)
    os_clockrate                             0x0800f3dc   Data           4  rtx_conf_cm.o(.constdata)
    os_timernum                              0x0800f3e0   Data           4  rtx_conf_cm.o(.constdata)
    mp_tcb_size                              0x0800f3e4   Data           2  rtx_conf_cm.o(.constdata)
    mp_stk_size                              0x0800f3e8   Data           4  rtx_conf_cm.o(.constdata)
    os_stack_sz                              0x0800f3ec   Data           4  rtx_conf_cm.o(.constdata)
    os_fifo_size                             0x0800f3f0   Data           1  rtx_conf_cm.o(.constdata)
    os_thread_def_osTimerThread              0x0800f3f4   Data          16  rtx_conf_cm.o(.constdata)
    os_messageQ_def_osTimerMessageQ          0x0800f404   Data           8  rtx_conf_cm.o(.constdata)
    mp_tmr_size                              0x0800f40c   Data           2  rtx_conf_cm.o(.constdata)
    GPIO_PIN                                 0x0800f410   Data           8  stm32f4_discovery.o(.constdata)
    GPIO_CLK                                 0x0800f418   Data          16  stm32f4_discovery.o(.constdata)
    BUTTON_PIN                               0x0800f428   Data           2  stm32f4_discovery.o(.constdata)
    BUTTON_CLK                               0x0800f42c   Data           4  stm32f4_discovery.o(.constdata)
    BUTTON_EXTI_LINE                         0x0800f430   Data           2  stm32f4_discovery.o(.constdata)
    BUTTON_PORT_SOURCE                       0x0800f432   Data           1  stm32f4_discovery.o(.constdata)
    BUTTON_PIN_SOURCE                        0x0800f433   Data           1  stm32f4_discovery.o(.constdata)
    BUTTON_IRQn                              0x0800f434   Data           1  stm32f4_discovery.o(.constdata)
    COM_USART_CLK                            0x0800f438   Data           8  stm32f4_discovery.o(.constdata)
    COM_TX_PORT_CLK                          0x0800f440   Data           8  stm32f4_discovery.o(.constdata)
    COM_RX_PORT_CLK                          0x0800f448   Data           8  stm32f4_discovery.o(.constdata)
    COM_TX_PIN                               0x0800f450   Data           4  stm32f4_discovery.o(.constdata)
    COM_RX_PIN                               0x0800f454   Data           4  stm32f4_discovery.o(.constdata)
    COM_TX_PIN_SOURCE                        0x0800f458   Data           4  stm32f4_discovery.o(.constdata)
    COM_RX_PIN_SOURCE                        0x0800f45c   Data           4  stm32f4_discovery.o(.constdata)
    COM_TX_AF                                0x0800f460   Data           4  stm32f4_discovery.o(.constdata)
    COM_RX_AF                                0x0800f464   Data           4  stm32f4_discovery.o(.constdata)
    os_mutex_def_lwip_sys_mutex              0x0800f49c   Data           4  sys_arch.o(.constdata)
    BitReverseTable256                       0x0800f518   Data         256  drv_canfdspi_api.o(.constdata)
    crc16_table                              0x0800f618   Data         512  drv_canfdspi_api.o(.constdata)
    Region$$Table$$Base                      0x0800f818   Number         0  anon$$obj.o(Region$$Table)
    Region$$Table$$Limit                     0x0800f838   Number         0  anon$$obj.o(Region$$Table)
    OffsetSecond                             0x20000000   Data           4  main.o(.data)
    OffsetNanosecond                         0x20000004   Data           4  main.o(.data)
    EthInitStatus                            0x20000008   Data           4  stm32f4x7_eth_bsp.o(.data)
    SystemCoreClock                          0x2000000c   Data           4  system_stm32f4xx.o(.data)
    AHBPrescTable                            0x20000010   Data          16  system_stm32f4xx.o(.data)
    Tim4Period                               0x20000020   Data           4  lab612_tim.o(.data)
    Tim2Period                               0x20000024   Data           4  lab612_tim.o(.data)
    Tim2Prescaler                            0x20000028   Data           4  lab612_tim.o(.data)
    TIM2WaveCNT                              0x2000002c   Data           2  lab612_tim_it.o(.data)
    InTheState                               0x20000030   Data           4  lab612_tim_it.o(.data)
    ADPLL_Lock                               0x20000034   Data           4  lab612_tim_it.o(.data)
    LockTime                                 0x20000038   Data           4  lab612_tim_it.o(.data)
    V1                                       0x2000003c   Data           4  lab612_tim_it.o(.data)
    SmpCnt1                                  0x20000040   Data           2  lab612_tim_it.o(.data)
    DualState                                0x20000044   Data           4  lab612_tim_it.o(.data)
    ADCDualConvertedValue                    0x20000048   Data           4  lab612_adc.o(.data)
    osThreadId_osTimerThread                 0x2000004c   Data           4  rtx_conf_cm.o(.data)
    osMessageQId_osTimerMessageQ             0x20000050   Data           4  rtx_conf_cm.o(.data)
    os_tmr                                   0x20000054   Data           4  rtx_conf_cm.o(.data)
    m_tmr                                    0x20000058   Data           4  rtx_conf_cm.o(.data)
    os_thread_def_main                       0x2000005c   Data          16  rtx_conf_cm.o(.data)
    os_initialized                           0x2000006c   Data           1  rt_cmsis.o(.data)
    os_running                               0x2000006d   Data           1  rt_cmsis.o(.data)
    os_timer_head                            0x20000070   Data           4  rt_cmsis.o(.data)
    os_robin                                 0x20000074   Data           8  rt_robin.o(.data)
    os_tick_irqn                             0x2000007c   Data           4  rt_system.o(.data)
    os_tsk                                   0x20000084   Data           8  rt_task.o(.data)
    os_time                                  0x2000008c   Data           4  rt_time.o(.data)
    GPIO_PORT                                0x20000090   Data          16  stm32f4_discovery.o(.data)
    BUTTON_PORT                              0x200000a0   Data           4  stm32f4_discovery.o(.data)
    COM_USART                                0x200000a4   Data           8  stm32f4_discovery.o(.data)
    COM_TX_PORT                              0x200000ac   Data           8  stm32f4_discovery.o(.data)
    COM_RX_PORT                              0x200000b4   Data           8  stm32f4_discovery.o(.data)
    NVIC_InitStructure                       0x200000bc   Data           4  stm32f4_discovery.o(.data)
    DMATxDescToSet                           0x200000d0   Data           4  stm32f4x7_eth.o(.data)
    DMARxDescToGet                           0x200000d4   Data           4  stm32f4x7_eth.o(.data)
    DMA_RX_FRAME_infos                       0x200000d8   Data           4  stm32f4x7_eth.o(.data)
    Frame_Rx_index                           0x200000dc   Data           4  stm32f4x7_eth.o(.data)
    lwip_sys_mutex                           0x200000f0   Data           4  sys_arch.o(.data)
    UTCoffset                                0x200000f8   Data           2  protocol.o(.data)
    netMACif_default                         0x200000fc   Data           4  net.o(.data)
    appData                                  0x20000108   Data           1  app.o(.data)
    config                                   0x2000010c   Data           4  app.o(.data)
    opMode                                   0x20000110   Data           1  app.o(.data)
    txConfig                                 0x20000114   Data           4  app.o(.data)
    txFlags                                  0x20000118   Data           1  app.o(.data)
    rxConfig                                 0x2000011c   Data           4  app.o(.data)
    fObj                                     0x20000120   Data           4  app.o(.data)
    mObj                                     0x20000124   Data           4  app.o(.data)
    rxFlags                                  0x20000128   Data           1  app.o(.data)
    delayCount                               0x2000012c   Data           4  app.o(.data)
    reg                                      0x20000130   Data           4  app.o(.data)
    lastSwitchState                          0x20000134   Data           1  app.o(.data)
    payload                                  0x20000135   Data           6  app.o(.data)
    ledCount                                 0x2000013b   Data           1  app.o(.data)
    ledState                                 0x2000013c   Data           1  app.o(.data)
    i                                        0x2000013d   Data           1  app.o(.data)
    tec                                      0x2000013e   Data           1  app.o(.data)
    rec                                      0x2000013f   Data           1  app.o(.data)
    errorFlags                               0x20000140   Data           1  app.o(.data)
    __stdout                                 0x20000148   Data           4  stdout.o(.data)
    MACFrame_Array                           0x2000014c   Data         372  main.o(.bss)
    mp_tcb                                   0x200002c0   Data         376  rtx_conf_cm.o(.bss)
    mp_stk                                   0x20000438   Data        3088  rtx_conf_cm.o(.bss)
    os_stack_mem                             0x20001048   Data        9248  rtx_conf_cm.o(.bss)
    os_fifo                                  0x20003468   Data         132  rtx_conf_cm.o(.bss)
    os_active_TCB                            0x200034ec   Data          28  rtx_conf_cm.o(.bss)
    os_messageQ_q_osTimerMessageQ            0x20003508   Data          48  rtx_conf_cm.o(.bss)
    os_rdy                                   0x20003538   Data          24  rt_list.o(.bss)
    os_dly                                   0x20003550   Data          24  rt_list.o(.bss)
    os_idle_TCB                              0x20003568   Data          52  rt_task.o(.bss)
    DMARxDscrTab                             0x2000359c   Data         160  stm32f4x7_eth.o(.bss)
    DMATxDscrTab                             0x2000363c   Data         160  stm32f4x7_eth.o(.bss)
    Rx_Buff                                  0x200036dc   Data        7620  stm32f4x7_eth.o(.bss)
    Tx_Buff                                  0x200054a0   Data        7620  stm32f4x7_eth.o(.bss)
    RX_Frame_Descriptor                      0x20007264   Data          12  stm32f4x7_eth.o(.bss)
    MAC_frame_mutex                          0x20007270   Data          24  netconf.o(.bss)
    xnetMACif                                0x20007288   Data          16  netconf.o(.bss)
    s_xRxSemaphore                           0x20007298   Data          16  ethernetif.o(.bss)
    s_xTxSemaphore                           0x200072a8   Data          16  ethernetif.o(.bss)
    ram_heap                                 0x2000eed0   Data        4116  mem.o(.bss)
    os_mutex_cb_lwip_sys_mutex               0x2000fefc   Data          16  sys_arch.o(.bss)
    rtOpts                                   0x2000ffe4   Data          64  ptpd.o(.bss)
    ptpClock                                 0x20010028   Data        1128  ptpd.o(.bss)
    ptpForeignRecords                        0x20010490   Data         440  ptpd.o(.bss)
    txObj                                    0x20010708   Data          12  app.o(.bss)
    txd                                      0x20010714   Data          64  app.o(.bss)
    rxObj                                    0x20010754   Data          12  app.o(.bss)
    rxd                                      0x20010760   Data          64  app.o(.bss)
    busDiagnostics                           0x200107a0   Data          12  app.o(.bss)
    spiTransmitBuffer                        0x200107ac   Data          96  drv_canfdspi_api.o(.bss)
    spiReceiveBuffer                         0x2001080c   Data          96  drv_canfdspi_api.o(.bss)
    __initial_sp                             0x20010c70   Data           0  startup_stm32f4xx.o(STACK)



==============================================================================

Memory Map of the image

  Image Entry point : 0x08000189

  Load Region LR_IROM1 (Base: 0x08000000, Size: 0x0000f984, Max: 0x00100000, ABSOLUTE, COMPRESSED[0x0000f874])

    Execution Region ER_IROM1 (Exec base: 0x08000000, Load base: 0x08000000, Size: 0x0000f838, Max: 0x00100000, ABSOLUTE)

    Exec Addr    Load Addr    Size         Type   Attr      Idx    E Section Name        Object

    0x08000000   0x08000000   0x00000188   Data   RO           92    RESET               startup_stm32f4xx.o
    0x08000188   0x08000188   0x00000000   Code   RO          382  * .ARM.Collect$$$$00000000  mc_w.l(entry.o)
    0x08000188   0x08000188   0x00000004   Code   RO          534    .ARM.Collect$$$$00000001  mc_w.l(entry2.o)
    0x0800018c   0x0800018c   0x00000004   Code   RO          537    .ARM.Collect$$$$00000004  mc_w.l(entry5.o)
    0x08000190   0x08000190   0x00000000   Code   RO          539    .ARM.Collect$$$$00000008  mc_w.l(entry7b.o)
    0x08000190   0x08000190   0x00000000   Code   RO          541    .ARM.Collect$$$$0000000A  mc_w.l(entry8b.o)
    0x08000190   0x08000190   0x00000000   Code   RO          542    .ARM.Collect$$$$0000000D  mc_w.l(entry10a.o)
    0x08000190   0x08000190   0x00000000   Code   RO          544    .ARM.Collect$$$$0000000F  mc_w.l(entry11a.o)
    0x08000190   0x08000190   0x00000018   Code   RO           24    .ARM.Collect$$$$000000FF  rtx_conf_cm.o
    0x080001a8   0x080001a8   0x00000004   Code   RO          535    .ARM.Collect$$$$00002712  mc_w.l(entry2.o)
    0x080001ac   0x080001ac   0x00000180   Code   RO           51    .emb_text           hal_cm4.o
    0x0800032c   0x0800032c   0x000000fc   Code   RO            2    .text               main.o
    0x08000428   0x08000428   0x000002a4   Code   RO            7    .text               stm32f4x7_eth_bsp.o
    0x080006cc   0x080006cc   0x0000004c   Code   RO           10    .text               stm32f4xx_it.o
    0x08000718   0x08000718   0x00000210   Code   RO           12    .text               system_stm32f4xx.o
    0x08000928   0x08000928   0x0000012c   Code   RO           15    .text               lab612_tim.o
    0x08000a54   0x08000a54   0x000001a0   Code   RO           18    .text               lab612_tim_it.o
    0x08000bf4   0x08000bf4   0x000001a8   Code   RO           22    .text               lab612_adc.o
    0x08000d9c   0x08000d9c   0x0000001e   Code   RO           25    .text               rtx_conf_cm.o
    0x08000dba   0x08000dba   0x00000002   PAD
    0x08000dbc   0x08000dbc   0x000012fc   Code   RO           30    .text               rt_cmsis.o
    0x080020b8   0x080020b8   0x0000017c   Code   RO           32    .text               rt_event.o
    0x08002234   0x08002234   0x00000294   Code   RO           33    .text               rt_list.o
    0x080024c8   0x080024c8   0x00000350   Code   RO           35    .text               rt_mailbox.o
    0x08002818   0x08002818   0x000000c2   Code   RO           36    .text               rt_membox.o
    0x080028da   0x080028da   0x000000b0   Code   RO           37    .text               rt_memory.o
    0x0800298a   0x0800298a   0x00000002   PAD
    0x0800298c   0x0800298c   0x00000280   Code   RO           38    .text               rt_mutex.o
    0x08002c0c   0x08002c0c   0x0000006c   Code   RO           39    .text               rt_robin.o
    0x08002c78   0x08002c78   0x00000144   Code   RO           41    .text               rt_semaphore.o
    0x08002dbc   0x08002dbc   0x0000031c   Code   RO           43    .text               rt_system.o
    0x080030d8   0x080030d8   0x000004d0   Code   RO           45    .text               rt_task.o
    0x080035a8   0x080035a8   0x00000064   Code   RO           48    .text               rt_time.o
    0x0800360c   0x0800360c   0x00000094   Code   RO           52    .text               hal_cm.o
    0x080036a0   0x080036a0   0x00000490   Code   RO           54    .text               stm32f4_discovery.o
    0x08003b30   0x08003b30   0x0000041a   Code   RO           62    .text               stm32f4xx_usart.o
    0x08003f4a   0x08003f4a   0x00000002   PAD
    0x08003f4c   0x08003f4c   0x000000e0   Code   RO           64    .text               misc.o
    0x0800402c   0x0800402c   0x00000464   Code   RO           66    .text               stm32f4xx_adc.o
    0x08004490   0x08004490   0x000003a8   Code   RO           68    .text               stm32f4xx_dma.o
    0x08004838   0x08004838   0x0000011c   Code   RO           70    .text               stm32f4xx_exti.o
    0x08004954   0x08004954   0x0000025c   Code   RO           74    .text               stm32f4xx_gpio.o
    0x08004bb0   0x08004bb0   0x00000588   Code   RO           76    .text               stm32f4xx_rcc.o
    0x08005138   0x08005138   0x000001dc   Code   RO           79    .text               stm32f4xx_sdio.o
    0x08005314   0x08005314   0x0000008c   Code   RO           81    .text               stm32f4xx_syscfg.o
    0x080053a0   0x080053a0   0x00000ca2   Code   RO           83    .text               stm32f4xx_tim.o
    0x08006042   0x08006042   0x00000002   PAD
    0x08006044   0x08006044   0x000003f8   Code   RO           85    .text               stm32f4xx_spi.o
    0x0800643c   0x0800643c   0x00001094   Code   RO           87    .text               stm32f4x7_eth.o
    0x080074d0   0x080074d0   0x00000024   Code   RO           93    .text               startup_stm32f4xx.o
    0x080074f4   0x080074f4   0x0000004c   Code   RO           95    .text               netconf.o
    0x08007540   0x08007540   0x00000754   Code   RO           98    .text               ethernetif.o
    0x08007c94   0x08007c94   0x000006f4   Code   RO          101    .text               pbuf.o
    0x08008388   0x08008388   0x000000ac   Code   RO          102    .text               memp.o
    0x08008434   0x08008434   0x0000036c   Code   RO          107    .text               mem.o
    0x080087a0   0x080087a0   0x000004fc   Code   RO          111    .text               sys_arch.o
    0x08008c9c   0x08008c9c   0x0000012c   Code   RO          117    .text               ptpd.o
    0x08008dc8   0x08008dc8   0x000010ac   Code   RO          121    .text               protocol.o
    0x08009e74   0x08009e74   0x00000370   Code   RO          124    .text               net.o
    0x0800a1e4   0x0800a1e4   0x00000048   Code   RO          127    .text               startup.o
    0x0800a22c   0x0800a22c   0x00000658   Code   RO          129    .text               bmc.o
    0x0800a884   0x0800a884   0x000001a4   Code   RO          131    .text               arith.o
    0x0800aa28   0x0800aa28   0x000000c8   Code   RO          133    .text               timer.o
    0x0800aaf0   0x0800aaf0   0x00000280   Code   RO          137    .text               sys_time.o
    0x0800ad70   0x0800ad70   0x0000045c   Code   RO          139    .text               servo.o
    0x0800b1cc   0x0800b1cc   0x000005f4   Code   RO          141    .text               msg.o
    0x0800b7c0   0x0800b7c0   0x0000003e   Code   RO          142    .text               def.o
    0x0800b7fe   0x0800b7fe   0x00000002   PAD
    0x0800b800   0x0800b800   0x000002f0   Code   RO          369    .text               app.o
    0x0800baf0   0x0800baf0   0x0000309e   Code   RO          374    .text               drv_canfdspi_api.o
    0x0800eb8e   0x0800eb8e   0x00000022   Code   RO          378    .text               drv_spi.o
    0x0800ebb0   0x0800ebb0   0x00000062   Code   RO          385    .text               mc_w.l(uldiv.o)
    0x0800ec12   0x0800ec12   0x00000062   Code   RO          386    .text               mc_w.l(ldiv.o)
    0x0800ec74   0x0800ec74   0x0000001e   Code   RO          387    .text               mc_w.l(llshl.o)
    0x0800ec92   0x0800ec92   0x00000002   PAD
    0x0800ec94   0x0800ec94   0x00000024   Code   RO          389    .text               mc_w.l(rand.o)
    0x0800ecb8   0x0800ecb8   0x00000024   Code   RO          391    .text               mc_w.l(memcpya.o)
    0x0800ecdc   0x0800ecdc   0x00000024   Code   RO          392    .text               mc_w.l(memseta.o)
    0x0800ed00   0x0800ed00   0x0000000e   Code   RO          393    .text               mc_w.l(strlen.o)
    0x0800ed0e   0x0800ed0e   0x0000001a   Code   RO          394    .text               mc_w.l(memcmp.o)
    0x0800ed28   0x0800ed28   0x00000020   Code   RO          548    .text               mc_w.l(llushr.o)
    0x0800ed48   0x0800ed48   0x00000024   Code   RO          553    .text               mc_w.l(init.o)
    0x0800ed6c   0x0800ed6c   0x00000056   Code   RO          559    .text               mc_w.l(__dczerorl2.o)
    0x0800edc2   0x0800edc2   0x00000002   PAD
    0x0800edc4   0x0800edc4   0x00000004   Code   RO           50    SVC_TABLE           svc_table.o
    0x0800edc8   0x0800edc8   0x00000020   Code   RO          500    i.__0printf$8       mc_w.l(printf8.o)
    0x0800ede8   0x0800ede8   0x0000000e   Code   RO          556    i.__scatterload_copy  mc_w.l(handlers.o)
    0x0800edf6   0x0800edf6   0x00000002   Code   RO          557    i.__scatterload_null  mc_w.l(handlers.o)
    0x0800edf8   0x0800edf8   0x0000000e   Code   RO          558    i.__scatterload_zeroinit  mc_w.l(handlers.o)
    0x0800ee06   0x0800ee06   0x00000002   PAD
    0x0800ee08   0x0800ee08   0x00000410   Code   RO          507    i._printf_core      mc_w.l(printf8.o)
    0x0800f218   0x0800f218   0x00000024   Code   RO          508    i._printf_post_padding  mc_w.l(printf8.o)
    0x0800f23c   0x0800f23c   0x0000002e   Code   RO          509    i._printf_pre_padding  mc_w.l(printf8.o)
    0x0800f26a   0x0800f26a   0x00000002   PAD
    0x0800f26c   0x0800f26c   0x000000ec   Code   RO          380    i.spi_master_init   drv_spi.o
    0x0800f358   0x0800f358   0x00000060   Code   RO          381    i.spi_master_transfer  drv_spi.o
    0x0800f3b8   0x0800f3b8   0x00000056   Data   RO           27    .constdata          rtx_conf_cm.o
    0x0800f40e   0x0800f40e   0x00000002   PAD
    0x0800f410   0x0800f410   0x00000058   Data   RO           55    .constdata          stm32f4_discovery.o
    0x0800f468   0x0800f468   0x00000034   Data   RO          104    .constdata          memp.o
    0x0800f49c   0x0800f49c   0x00000004   Data   RO          113    .constdata          sys_arch.o
    0x0800f4a0   0x0800f4a0   0x00000378   Data   RO          376    .constdata          drv_canfdspi_api.o
    0x0800f818   0x0800f818   0x00000020   Data   RO          554    Region$$Table       anon$$obj.o


    Execution Region RW_IRAM1 (Exec base: 0x20000000, Load base: 0x0800f838, Size: 0x00010c70, Max: 0x00020000, ABSOLUTE, COMPRESSED[0x0000003c])

    Exec Addr    Load Addr    Size         Type   Attr      Idx    E Section Name        Object

    0x20000000   COMPRESSED   0x00000008   Data   RW            5    .data               main.o
    0x20000008   COMPRESSED   0x00000004   Data   RW            8    .data               stm32f4x7_eth_bsp.o
    0x2000000c   COMPRESSED   0x00000014   Data   RW           13    .data               system_stm32f4xx.o
    0x20000020   COMPRESSED   0x0000000c   Data   RW           16    .data               lab612_tim.o
    0x2000002c   COMPRESSED   0x0000001c   Data   RW           20    .data               lab612_tim_it.o
    0x20000048   COMPRESSED   0x00000004   Data   RW           23    .data               lab612_adc.o
    0x2000004c   COMPRESSED   0x00000020   Data   RW           28    .data               rtx_conf_cm.o
    0x2000006c   COMPRESSED   0x00000008   Data   RW           31    .data               rt_cmsis.o
    0x20000074   COMPRESSED   0x00000008   Data   RW           40    .data               rt_robin.o
    0x2000007c   COMPRESSED   0x00000007   Data   RW           44    .data               rt_system.o
    0x20000083   COMPRESSED   0x00000001   PAD
    0x20000084   COMPRESSED   0x00000008   Data   RW           47    .data               rt_task.o
    0x2000008c   COMPRESSED   0x00000004   Data   RW           49    .data               rt_time.o
    0x20000090   COMPRESSED   0x00000030   Data   RW           56    .data               stm32f4_discovery.o
    0x200000c0   COMPRESSED   0x00000010   Data   RW           77    .data               stm32f4xx_rcc.o
    0x200000d0   COMPRESSED   0x00000010   Data   RW           89    .data               stm32f4x7_eth.o
    0x200000e0   COMPRESSED   0x00000004   Data   RW          100    .data               ethernetif.o
    0x200000e4   COMPRESSED   0x0000000c   Data   RW          109    .data               mem.o
    0x200000f0   COMPRESSED   0x00000008   Data   RW          114    .data               sys_arch.o
    0x200000f8   COMPRESSED   0x00000002   Data   RW          122    .data               protocol.o
    0x200000fa   COMPRESSED   0x00000002   PAD
    0x200000fc   COMPRESSED   0x00000004   Data   RW          125    .data               net.o
    0x20000100   COMPRESSED   0x00000006   Data   RW          135    .data               timer.o
    0x20000106   COMPRESSED   0x00000002   PAD
    0x20000108   COMPRESSED   0x00000039   Data   RW          372    .data               app.o
    0x20000141   COMPRESSED   0x00000003   PAD
    0x20000144   COMPRESSED   0x00000004   Data   RW          390    .data               mc_w.l(rand.o)
    0x20000148   COMPRESSED   0x00000004   Data   RW          546    .data               mc_w.l(stdout.o)
    0x2000014c        -       0x00000174   Zero   RW            3    .bss                main.o
    0x200002c0        -       0x00003278   Zero   RW           26    .bss                rtx_conf_cm.o
    0x20003538        -       0x00000030   Zero   RW           34    .bss                rt_list.o
    0x20003568        -       0x00000034   Zero   RW           46    .bss                rt_task.o
    0x2000359c        -       0x00003cd4   Zero   RW           88    .bss                stm32f4x7_eth.o
    0x20007270        -       0x00000028   Zero   RW           96    .bss                netconf.o
    0x20007298        -       0x00000020   Zero   RW           99    .bss                ethernetif.o
    0x200072b8        -       0x00007c17   Zero   RW          103    .bss                memp.o
    0x2000eecf   COMPRESSED   0x00000001   PAD
    0x2000eed0        -       0x0000102c   Zero   RW          108    .bss                mem.o
    0x2000fefc        -       0x00000088   Zero   RW          112    .bss                sys_arch.o
    0x2000ff84   COMPRESSED   0x00000004   PAD
    0x2000ff88        -       0x000006c0   Zero   RW          118    .bss                ptpd.o
    0x20010648        -       0x000000c0   Zero   RW          134    .bss                timer.o
    0x20010708        -       0x000000a4   Zero   RW          370    .bss                app.o
    0x200107ac        -       0x000000c0   Zero   RW          375    .bss                drv_canfdspi_api.o
    0x2001086c   COMPRESSED   0x00000004   PAD
    0x20010870        -       0x00000400   Zero   RW           90    STACK               startup_stm32f4xx.o


==============================================================================

Image component sizes


      Code (inc. data)   RO Data    RW Data    ZI Data      Debug   Object Name

       752         60          0         57        164          0   app.o
       420          8          0          0          0          0   arith.o
      1624          0          0          0          0          0   bmc.o
        62          0          0          0          0          0   def.o
     12446        190        888          0        192          0   drv_canfdspi_api.o
       366         20          0          0          0          0   drv_spi.o
      1876         88          0          4         32          0   ethernetif.o
       148          8          0          0          0          0   hal_cm.o
       384         28          0          0          0          0   hal_cm4.o
       424         32          0          4          0          0   lab612_adc.o
       300         10          0         12          0          0   lab612_tim.o
       416         56          0         28          0          0   lab612_tim_it.o
       252         36          0          8        372          0   main.o
       876         20          0         12       4140          0   mem.o
       172         18         52          0      31767          0   memp.o
       224         20          0          0          0          0   misc.o
      1524          0          0          0          0          0   msg.o
       880         22          0          4          0          0   net.o
        76         12          0          0         40          0   netconf.o
      1780          0          0          0          0          0   pbuf.o
      4268        148          0          2          0          0   protocol.o
       300        100          0          0       1728          0   ptpd.o
      4860        114          0          8          0          0   rt_cmsis.o
       380         14          0          0          0          0   rt_event.o
       660         22          0          0         48          0   rt_list.o
       848          8          0          0          0          0   rt_mailbox.o
       194          0          0          0          0          0   rt_membox.o
       176          0          0          0          0          0   rt_memory.o
       640          8          0          0          0          0   rt_mutex.o
       108         18          0          8          0          0   rt_robin.o
       324         10          0          0          0          0   rt_semaphore.o
       796         52          0          7          0          0   rt_system.o
      1232         78          0          8         52          0   rt_task.o
       100          8          0          4          0          0   rt_time.o
        54          6         86         32      12920          0   rtx_conf_cm.o
      1116         30          0          0          0          0   servo.o
        72          0          0          0          0          0   startup.o
        36          8        392          0       1024          0   startup_stm32f4xx.o
      1168        114         88         48          0          0   stm32f4_discovery.o
      4244        110          0         16      15572          0   stm32f4x7_eth.o
       676         30          0          4          0          0   stm32f4x7_eth_bsp.o
      1124         24          0          0          0          0   stm32f4xx_adc.o
       936         32          0          0          0          0   stm32f4xx_dma.o
       284         10          0          0          0          0   stm32f4xx_exti.o
       604         36          0          0          0          0   stm32f4xx_gpio.o
        76          6          0          0          0          0   stm32f4xx_it.o
      1416         48          0         16          0          0   stm32f4xx_rcc.o
       476         16          0          0          0          0   stm32f4xx_sdio.o
      1016         22          0          0          0          0   stm32f4xx_spi.o
       140         12          0          0          0          0   stm32f4xx_syscfg.o
      3234         60          0          0          0          0   stm32f4xx_tim.o
      1050         26          0          0          0          0   stm32f4xx_usart.o
         4          4          0          0          0          0   svc_table.o
      1276        466          4          8        136          0   sys_arch.o
       640        264          0          0          0          0   sys_time.o
       528         46          0         20          0          0   system_stm32f4xx.o
       200         40          0          6        192          0   timer.o

    ----------------------------------------------------------------------
     60268       2618       1544        324      68388          0   Object Totals
         0          0         32          0          0          0   (incl. Generated)
        10          0          2          8          9          0   (incl. Padding)

    ----------------------------------------------------------------------

      Code (inc. data)   RO Data    RW Data    ZI Data      Debug   Library Member Name

        86          0          0          0          0          0   __dczerorl2.o
         0          0          0          0          0          0   entry.o
         0          0          0          0          0          0   entry10a.o
         0          0          0          0          0          0   entry11a.o
         8          4          0          0          0          0   entry2.o
         4          0          0          0          0          0   entry5.o
         0          0          0          0          0          0   entry7b.o
         0          0          0          0          0          0   entry8b.o
        30          0          0          0          0          0   handlers.o
        36          8          0          0          0          0   init.o
        98          0          0          0          0          0   ldiv.o
        30          0          0          0          0          0   llshl.o
        32          0          0          0          0          0   llushr.o
        26          0          0          0          0          0   memcmp.o
        36          0          0          0          0          0   memcpya.o
        36          0          0          0          0          0   memseta.o
      1154         54          0          0          0          0   printf8.o
        36         10          0          4          0          0   rand.o
         0          0          0          4          0          0   stdout.o
        14          0          0          0          0          0   strlen.o
        98          0          0          0          0          0   uldiv.o

    ----------------------------------------------------------------------
      1732         76          0          8          0          0   Library Totals
         8          0          0          0          0          0   (incl. Padding)

    ----------------------------------------------------------------------

      Code (inc. data)   RO Data    RW Data    ZI Data      Debug   Library Name

      1724         76          0          8          0          0   mc_w.l

    ----------------------------------------------------------------------
      1732         76          0          8          0          0   Library Totals

    ----------------------------------------------------------------------

==============================================================================


      Code (inc. data)   RO Data    RW Data    ZI Data      Debug   

     62000       2694       1544        332      68388          0   Grand Totals
     62000       2694       1544         60      68388          0   ELF Image Totals (compressed)
     62000       2694       1544         60          0          0   ROM Totals

==============================================================================

    Total RO  Size (Code + RO Data)                63544 (  62.05kB)
    Total RW  Size (RW Data + ZI Data)             68720 (  67.11kB)
    Total ROM Size (Code + RO Data + RW Data)      63604 (  62.11kB)

==============================================================================

